

Microchip MPLAB XC8 Assembler V3.00 build 20241204225717 
                                                                                               Thu Jan 30 16:34:27 2025

Microchip MPLAB XC8 C Compiler v3.00 (Free license) build 20241204225717 Og1 
     1                           	processor	16LF1825
     2                           	pagewidth 120
     3                           	opt	flic
     4                           	psect	stringtext1,global,class=STRCODE,space=0,delta=2,noexec
     5                           	psect	stringtext2,global,class=STRCODE,space=0,delta=2,noexec
     6                           	psect	stringtext3,global,class=STRCODE,space=0,delta=2,noexec
     7                           	psect	stringtext4,global,class=STRCODE,space=0,delta=2,noexec
     8                           	psect	nvBANK0,global,class=BANK0,space=1,delta=1,noexec
     9                           	psect	cinit,global,class=CODE,space=0,merge=1,delta=2
    10                           	psect	clrtext,global,class=CODE,space=0,delta=2
    11                           	psect	cstackCOMMON,global,class=COMMON,space=1,delta=1,noexec
    12                           	psect	maintext,global,class=CODE,space=0,merge=1,split=1,delta=2
    13                           	psect	text1,local,class=CODE,space=0,merge=1,delta=2
    14                           	psect	text2,local,class=CODE,space=0,merge=1,delta=2
    15                           	psect	text3,local,class=CODE,space=0,merge=1,delta=2
    16                           	psect	text4,local,class=CODE,space=0,merge=1,delta=2
    17                           	psect	text5,local,class=CODE,space=0,merge=1,delta=2
    18                           	psect	text6,local,class=CODE,space=0,merge=1,delta=2
    19                           	psect	text7,local,class=CODE,space=0,merge=1,delta=2
    20                           	psect	text8,local,class=CODE,space=0,merge=1,delta=2
    21                           	psect	text9,local,class=CODE,space=0,merge=1,delta=2
    22                           	psect	text10,local,class=CODE,space=0,merge=1,delta=2
    23                           	psect	text11,local,class=CODE,space=0,merge=1,delta=2
    24                           	psect	text12,local,class=CODE,space=0,merge=1,delta=2
    25                           	psect	text13,local,class=CODE,space=0,merge=1,delta=2
    26                           	psect	text14,local,class=CODE,space=0,merge=1,delta=2,group=1
    27                           	psect	text15,local,class=CODE,space=0,merge=1,delta=2
    28                           	psect	text16,local,class=CODE,space=0,merge=1,delta=2
    29                           	psect	config,global,abs,ovrld,class=CONFIG,space=4,delta=2,noexec
    30                           	dabs	1,0x620,48
    31                           	dabs	1,0x5A0,80
    32                           	dabs	1,0x520,80
    33                           	dabs	1,0x4C0,48
    34                           	dabs	1,0x22F0,0,_dataBuffer
    35                           	dabs	1,0x7E,2
    36     0000                     
    37                           ; Generated 07/09/2023 GMT
    38                           ; 
    39                           ; Copyright © 2023, Microchip Technology Inc. and its subsidiaries ("Microchip")
    40                           ; All rights reserved.
    41                           ; 
    42                           ; This software is developed by Microchip Technology Inc. and its subsidiaries ("Microch
      +                          ip").
    43                           ; 
    44                           ; Redistribution and use in source and binary forms, with or without modification, are
    45                           ; permitted provided that the following conditions are met:
    46                           ; 
    47                           ;     1. Redistributions of source code must retain the above copyright notice, this lis
      +                          t of
    48                           ;        conditions and the following disclaimer.
    49                           ; 
    50                           ;     2. Redistributions in binary form must reproduce the above copyright notice, this 
      +                          list
    51                           ;        of conditions and the following disclaimer in the documentation and/or other
    52                           ;        materials provided with the distribution. Publication is not required when
    53                           ;        this file is used in an embedded application.
    54                           ; 
    55                           ;     3. Microchip's name may not be used to endorse or promote products derived from th
      +                          is
    56                           ;        software without specific prior written permission.
    57                           ; 
    58                           ; THIS SOFTWARE IS PROVIDED BY MICROCHIP "AS IS" AND ANY EXPRESS OR IMPLIED WARRANTIES,
    59                           ; INCLUDING, BUT NOT LIMITED TO, THE IMPLIED WARRANTIES OF MERCHANTABILITY AND FITNESS F
      +                          OR
    60                           ; PURPOSE ARE DISCLAIMED.  IN NO EVENT SHALL MICROCHIP BE LIABLE FOR ANY DIRECT, INDIREC
      +                          T,
    61                           ; INCIDENTAL, SPECIAL, EXEMPLARY, OR CONSEQUENTIAL DAMAGES (INCLUDING BUT NOT LIMITED TO
    62                           ; PROCUREMENT OF SUBSTITUTE GOODS OR SERVICES; LOSS OF USE, DATA OR PROFITS; OR BUSINESS
    63                           ; INTERRUPTION) HOWSOEVER CAUSED AND ON ANY THEORY OF LIABILITY, WHETHER IN CONTRACT, ST
      +                          RICT
    64                           ; LIABILITY, OR TORT (INCLUDING NEGLIGENCE OR OTHERWISE) ARISING IN ANY WAY OUT OF THE U
      +                          SE OF
    65                           ; THIS SOFTWARE, EVEN IF ADVISED OF THE POSSIBILITY OF SUCH DAMAGE.
    66                           ; 
    67                           ; 
    68                           ; Code-generator required, PIC16LF1825 Definitions
    69                           ; 
    70                           ; SFR Addresses
    71     0008                     bsr             equ	8
    72     0005                     fsr0h           equ	5
    73     0004                     fsr0l           equ	4
    74     0007                     fsr1h           equ	7
    75     0006                     fsr1l           equ	6
    76     0000                     indf            equ	0
    77     0000                     indf0           equ	0
    78     0001                     indf1           equ	1
    79     000B                     intcon          equ	11
    80     0002                     pc              equ	2
    81     0002                     pcl             equ	2
    82     000A                     pclath          equ	10
    83     0003                     status          equ	3
    84     0009                     wreg            equ	9
    85     0000                     INDF0           equ	0	;# 
    86     0001                     INDF1           equ	1	;# 
    87     0002                     PCL             equ	2	;# 
    88     0003                     STATUS          equ	3	;# 
    89     0004                     FSR0L           equ	4	;# 
    90     0005                     FSR0H           equ	5	;# 
    91     0006                     FSR1L           equ	6	;# 
    92     0007                     FSR1H           equ	7	;# 
    93     0008                     BSR             equ	8	;# 
    94     0009                     WREG            equ	9	;# 
    95     000A                     PCLATH          equ	10	;# 
    96     000B                     INTCON          equ	11	;# 
    97     000C                     PORTA           equ	12	;# 
    98     000E                     PORTC           equ	14	;# 
    99     0011                     PIR1            equ	17	;# 
   100     0012                     PIR2            equ	18	;# 
   101     0013                     PIR3            equ	19	;# 
   102     0015                     TMR0            equ	21	;# 
   103     0016                     TMR1            equ	22	;# 
   104     0016                     TMR1L           equ	22	;# 
   105     0017                     TMR1H           equ	23	;# 
   106     0018                     T1CON           equ	24	;# 
   107     0019                     T1GCON          equ	25	;# 
   108     001A                     TMR2            equ	26	;# 
   109     001B                     PR2             equ	27	;# 
   110     001C                     T2CON           equ	28	;# 
   111     001E                     CPSCON0         equ	30	;# 
   112     001F                     CPSCON1         equ	31	;# 
   113     008C                     TRISA           equ	140	;# 
   114     008E                     TRISC           equ	142	;# 
   115     0091                     PIE1            equ	145	;# 
   116     0092                     PIE2            equ	146	;# 
   117     0093                     PIE3            equ	147	;# 
   118     0095                     OPTION_REG      equ	149	;# 
   119     0096                     PCON            equ	150	;# 
   120     0097                     WDTCON          equ	151	;# 
   121     0098                     OSCTUNE         equ	152	;# 
   122     0099                     OSCCON          equ	153	;# 
   123     009A                     OSCSTAT         equ	154	;# 
   124     009B                     ADRES           equ	155	;# 
   125     009B                     ADRESL          equ	155	;# 
   126     009C                     ADRESH          equ	156	;# 
   127     009D                     ADCON0          equ	157	;# 
   128     009E                     ADCON1          equ	158	;# 
   129     010C                     LATA            equ	268	;# 
   130     010E                     LATC            equ	270	;# 
   131     0111                     CM1CON0         equ	273	;# 
   132     0112                     CM1CON1         equ	274	;# 
   133     0113                     CM2CON0         equ	275	;# 
   134     0114                     CM2CON1         equ	276	;# 
   135     0115                     CMOUT           equ	277	;# 
   136     0116                     BORCON          equ	278	;# 
   137     0117                     FVRCON          equ	279	;# 
   138     0118                     DACCON0         equ	280	;# 
   139     0119                     DACCON1         equ	281	;# 
   140     011A                     SRCON0          equ	282	;# 
   141     011B                     SRCON1          equ	283	;# 
   142     011D                     APFCON0         equ	285	;# 
   143     011E                     APFCON1         equ	286	;# 
   144     018C                     ANSELA          equ	396	;# 
   145     018E                     ANSELC          equ	398	;# 
   146     0191                     EEADR           equ	401	;# 
   147     0191                     EEADRL          equ	401	;# 
   148     0192                     EEADRH          equ	402	;# 
   149     0193                     EEDAT           equ	403	;# 
   150     0193                     EEDATL          equ	403	;# 
   151     0193                     EEDATA          equ	403	;# 
   152     0194                     EEDATH          equ	404	;# 
   153     0195                     EECON1          equ	405	;# 
   154     0196                     EECON2          equ	406	;# 
   155     0199                     RCREG           equ	409	;# 
   156     019A                     TXREG           equ	410	;# 
   157     019B                     SPBRG           equ	411	;# 
   158     019B                     SPBRGL          equ	411	;# 
   159     019C                     SPBRGH          equ	412	;# 
   160     019D                     RCSTA           equ	413	;# 
   161     019E                     TXSTA           equ	414	;# 
   162     019F                     BAUDCON         equ	415	;# 
   163     020C                     WPUA            equ	524	;# 
   164     020E                     WPUC            equ	526	;# 
   165     0211                     SSP1BUF         equ	529	;# 
   166     0211                     SSPBUF          equ	529	;# 
   167     0212                     SSP1ADD         equ	530	;# 
   168     0212                     SSPADD          equ	530	;# 
   169     0213                     SSP1MSK         equ	531	;# 
   170     0213                     SSPMSK          equ	531	;# 
   171     0214                     SSP1STAT        equ	532	;# 
   172     0214                     SSPSTAT         equ	532	;# 
   173     0215                     SSP1CON1        equ	533	;# 
   174     0215                     SSPCON1         equ	533	;# 
   175     0215                     SSPCON          equ	533	;# 
   176     0216                     SSP1CON2        equ	534	;# 
   177     0216                     SSPCON2         equ	534	;# 
   178     0217                     SSP1CON3        equ	535	;# 
   179     0217                     SSPCON3         equ	535	;# 
   180     0291                     CCPR1           equ	657	;# 
   181     0291                     CCPR1L          equ	657	;# 
   182     0292                     CCPR1H          equ	658	;# 
   183     0293                     CCP1CON         equ	659	;# 
   184     0294                     PWM1CON         equ	660	;# 
   185     0295                     CCP1AS          equ	661	;# 
   186     0295                     ECCP1AS         equ	661	;# 
   187     0296                     PSTR1CON        equ	662	;# 
   188     0298                     CCPR2           equ	664	;# 
   189     0298                     CCPR2L          equ	664	;# 
   190     0299                     CCPR2H          equ	665	;# 
   191     029A                     CCP2CON         equ	666	;# 
   192     029B                     PWM2CON         equ	667	;# 
   193     029C                     CCP2AS          equ	668	;# 
   194     029D                     PSTR2CON        equ	669	;# 
   195     029E                     CCPTMRS         equ	670	;# 
   196     029E                     CCPTMRS0        equ	670	;# 
   197     0311                     CCPR3           equ	785	;# 
   198     0311                     CCPR3L          equ	785	;# 
   199     0312                     CCPR3H          equ	786	;# 
   200     0313                     CCP3CON         equ	787	;# 
   201     0318                     CCPR4           equ	792	;# 
   202     0318                     CCPR4L          equ	792	;# 
   203     0319                     CCPR4H          equ	793	;# 
   204     031A                     CCP4CON         equ	794	;# 
   205     038C                     INLVLA          equ	908	;# 
   206     038E                     INLVLC          equ	910	;# 
   207     0391                     IOCAP           equ	913	;# 
   208     0392                     IOCAN           equ	914	;# 
   209     0393                     IOCAF           equ	915	;# 
   210     039A                     CLKRCON         equ	922	;# 
   211     039C                     MDCON           equ	924	;# 
   212     039D                     MDSRC           equ	925	;# 
   213     039E                     MDCARL          equ	926	;# 
   214     039F                     MDCARH          equ	927	;# 
   215     0415                     TMR4            equ	1045	;# 
   216     0416                     PR4             equ	1046	;# 
   217     0417                     T4CON           equ	1047	;# 
   218     041C                     TMR6            equ	1052	;# 
   219     041D                     PR6             equ	1053	;# 
   220     041E                     T6CON           equ	1054	;# 
   221     0FE4                     STATUS_SHAD     equ	4068	;# 
   222     0FE5                     WREG_SHAD       equ	4069	;# 
   223     0FE6                     BSR_SHAD        equ	4070	;# 
   224     0FE7                     PCLATH_SHAD     equ	4071	;# 
   225     0FE8                     FSR0L_SHAD      equ	4072	;# 
   226     0FE9                     FSR0H_SHAD      equ	4073	;# 
   227     0FEA                     FSR1L_SHAD      equ	4074	;# 
   228     0FEB                     FSR1H_SHAD      equ	4075	;# 
   229     0FED                     STKPTR          equ	4077	;# 
   230     0FEE                     TOSL            equ	4078	;# 
   231     0FEF                     TOSH            equ	4079	;# 
   232     0000                     INDF0           equ	0	;# 
   233     0001                     INDF1           equ	1	;# 
   234     0002                     PCL             equ	2	;# 
   235     0003                     STATUS          equ	3	;# 
   236     0004                     FSR0L           equ	4	;# 
   237     0005                     FSR0H           equ	5	;# 
   238     0006                     FSR1L           equ	6	;# 
   239     0007                     FSR1H           equ	7	;# 
   240     0008                     BSR             equ	8	;# 
   241     0009                     WREG            equ	9	;# 
   242     000A                     PCLATH          equ	10	;# 
   243     000B                     INTCON          equ	11	;# 
   244     000C                     PORTA           equ	12	;# 
   245     000E                     PORTC           equ	14	;# 
   246     0011                     PIR1            equ	17	;# 
   247     0012                     PIR2            equ	18	;# 
   248     0013                     PIR3            equ	19	;# 
   249     0015                     TMR0            equ	21	;# 
   250     0016                     TMR1            equ	22	;# 
   251     0016                     TMR1L           equ	22	;# 
   252     0017                     TMR1H           equ	23	;# 
   253     0018                     T1CON           equ	24	;# 
   254     0019                     T1GCON          equ	25	;# 
   255     001A                     TMR2            equ	26	;# 
   256     001B                     PR2             equ	27	;# 
   257     001C                     T2CON           equ	28	;# 
   258     001E                     CPSCON0         equ	30	;# 
   259     001F                     CPSCON1         equ	31	;# 
   260     008C                     TRISA           equ	140	;# 
   261     008E                     TRISC           equ	142	;# 
   262     0091                     PIE1            equ	145	;# 
   263     0092                     PIE2            equ	146	;# 
   264     0093                     PIE3            equ	147	;# 
   265     0095                     OPTION_REG      equ	149	;# 
   266     0096                     PCON            equ	150	;# 
   267     0097                     WDTCON          equ	151	;# 
   268     0098                     OSCTUNE         equ	152	;# 
   269     0099                     OSCCON          equ	153	;# 
   270     009A                     OSCSTAT         equ	154	;# 
   271     009B                     ADRES           equ	155	;# 
   272     009B                     ADRESL          equ	155	;# 
   273     009C                     ADRESH          equ	156	;# 
   274     009D                     ADCON0          equ	157	;# 
   275     009E                     ADCON1          equ	158	;# 
   276     010C                     LATA            equ	268	;# 
   277     010E                     LATC            equ	270	;# 
   278     0111                     CM1CON0         equ	273	;# 
   279     0112                     CM1CON1         equ	274	;# 
   280     0113                     CM2CON0         equ	275	;# 
   281     0114                     CM2CON1         equ	276	;# 
   282     0115                     CMOUT           equ	277	;# 
   283     0116                     BORCON          equ	278	;# 
   284     0117                     FVRCON          equ	279	;# 
   285     0118                     DACCON0         equ	280	;# 
   286     0119                     DACCON1         equ	281	;# 
   287     011A                     SRCON0          equ	282	;# 
   288     011B                     SRCON1          equ	283	;# 
   289     011D                     APFCON0         equ	285	;# 
   290     011E                     APFCON1         equ	286	;# 
   291     018C                     ANSELA          equ	396	;# 
   292     018E                     ANSELC          equ	398	;# 
   293     0191                     EEADR           equ	401	;# 
   294     0191                     EEADRL          equ	401	;# 
   295     0192                     EEADRH          equ	402	;# 
   296     0193                     EEDAT           equ	403	;# 
   297     0193                     EEDATL          equ	403	;# 
   298     0193                     EEDATA          equ	403	;# 
   299     0194                     EEDATH          equ	404	;# 
   300     0195                     EECON1          equ	405	;# 
   301     0196                     EECON2          equ	406	;# 
   302     0199                     RCREG           equ	409	;# 
   303     019A                     TXREG           equ	410	;# 
   304     019B                     SPBRG           equ	411	;# 
   305     019B                     SPBRGL          equ	411	;# 
   306     019C                     SPBRGH          equ	412	;# 
   307     019D                     RCSTA           equ	413	;# 
   308     019E                     TXSTA           equ	414	;# 
   309     019F                     BAUDCON         equ	415	;# 
   310     020C                     WPUA            equ	524	;# 
   311     020E                     WPUC            equ	526	;# 
   312     0211                     SSP1BUF         equ	529	;# 
   313     0211                     SSPBUF          equ	529	;# 
   314     0212                     SSP1ADD         equ	530	;# 
   315     0212                     SSPADD          equ	530	;# 
   316     0213                     SSP1MSK         equ	531	;# 
   317     0213                     SSPMSK          equ	531	;# 
   318     0214                     SSP1STAT        equ	532	;# 
   319     0214                     SSPSTAT         equ	532	;# 
   320     0215                     SSP1CON1        equ	533	;# 
   321     0215                     SSPCON1         equ	533	;# 
   322     0215                     SSPCON          equ	533	;# 
   323     0216                     SSP1CON2        equ	534	;# 
   324     0216                     SSPCON2         equ	534	;# 
   325     0217                     SSP1CON3        equ	535	;# 
   326     0217                     SSPCON3         equ	535	;# 
   327     0291                     CCPR1           equ	657	;# 
   328     0291                     CCPR1L          equ	657	;# 
   329     0292                     CCPR1H          equ	658	;# 
   330     0293                     CCP1CON         equ	659	;# 
   331     0294                     PWM1CON         equ	660	;# 
   332     0295                     CCP1AS          equ	661	;# 
   333     0295                     ECCP1AS         equ	661	;# 
   334     0296                     PSTR1CON        equ	662	;# 
   335     0298                     CCPR2           equ	664	;# 
   336     0298                     CCPR2L          equ	664	;# 
   337     0299                     CCPR2H          equ	665	;# 
   338     029A                     CCP2CON         equ	666	;# 
   339     029B                     PWM2CON         equ	667	;# 
   340     029C                     CCP2AS          equ	668	;# 
   341     029D                     PSTR2CON        equ	669	;# 
   342     029E                     CCPTMRS         equ	670	;# 
   343     029E                     CCPTMRS0        equ	670	;# 
   344     0311                     CCPR3           equ	785	;# 
   345     0311                     CCPR3L          equ	785	;# 
   346     0312                     CCPR3H          equ	786	;# 
   347     0313                     CCP3CON         equ	787	;# 
   348     0318                     CCPR4           equ	792	;# 
   349     0318                     CCPR4L          equ	792	;# 
   350     0319                     CCPR4H          equ	793	;# 
   351     031A                     CCP4CON         equ	794	;# 
   352     038C                     INLVLA          equ	908	;# 
   353     038E                     INLVLC          equ	910	;# 
   354     0391                     IOCAP           equ	913	;# 
   355     0392                     IOCAN           equ	914	;# 
   356     0393                     IOCAF           equ	915	;# 
   357     039A                     CLKRCON         equ	922	;# 
   358     039C                     MDCON           equ	924	;# 
   359     039D                     MDSRC           equ	925	;# 
   360     039E                     MDCARL          equ	926	;# 
   361     039F                     MDCARH          equ	927	;# 
   362     0415                     TMR4            equ	1045	;# 
   363     0416                     PR4             equ	1046	;# 
   364     0417                     T4CON           equ	1047	;# 
   365     041C                     TMR6            equ	1052	;# 
   366     041D                     PR6             equ	1053	;# 
   367     041E                     T6CON           equ	1054	;# 
   368     0FE4                     STATUS_SHAD     equ	4068	;# 
   369     0FE5                     WREG_SHAD       equ	4069	;# 
   370     0FE6                     BSR_SHAD        equ	4070	;# 
   371     0FE7                     PCLATH_SHAD     equ	4071	;# 
   372     0FE8                     FSR0L_SHAD      equ	4072	;# 
   373     0FE9                     FSR0H_SHAD      equ	4073	;# 
   374     0FEA                     FSR1L_SHAD      equ	4074	;# 
   375     0FEB                     FSR1H_SHAD      equ	4075	;# 
   376     0FED                     STKPTR          equ	4077	;# 
   377     0FEE                     TOSL            equ	4078	;# 
   378     0FEF                     TOSH            equ	4079	;# 
   379     0000                     INDF0           equ	0	;# 
   380     0001                     INDF1           equ	1	;# 
   381     0002                     PCL             equ	2	;# 
   382     0003                     STATUS          equ	3	;# 
   383     0004                     FSR0L           equ	4	;# 
   384     0005                     FSR0H           equ	5	;# 
   385     0006                     FSR1L           equ	6	;# 
   386     0007                     FSR1H           equ	7	;# 
   387     0008                     BSR             equ	8	;# 
   388     0009                     WREG            equ	9	;# 
   389     000A                     PCLATH          equ	10	;# 
   390     000B                     INTCON          equ	11	;# 
   391     000C                     PORTA           equ	12	;# 
   392     000E                     PORTC           equ	14	;# 
   393     0011                     PIR1            equ	17	;# 
   394     0012                     PIR2            equ	18	;# 
   395     0013                     PIR3            equ	19	;# 
   396     0015                     TMR0            equ	21	;# 
   397     0016                     TMR1            equ	22	;# 
   398     0016                     TMR1L           equ	22	;# 
   399     0017                     TMR1H           equ	23	;# 
   400     0018                     T1CON           equ	24	;# 
   401     0019                     T1GCON          equ	25	;# 
   402     001A                     TMR2            equ	26	;# 
   403     001B                     PR2             equ	27	;# 
   404     001C                     T2CON           equ	28	;# 
   405     001E                     CPSCON0         equ	30	;# 
   406     001F                     CPSCON1         equ	31	;# 
   407     008C                     TRISA           equ	140	;# 
   408     008E                     TRISC           equ	142	;# 
   409     0091                     PIE1            equ	145	;# 
   410     0092                     PIE2            equ	146	;# 
   411     0093                     PIE3            equ	147	;# 
   412     0095                     OPTION_REG      equ	149	;# 
   413     0096                     PCON            equ	150	;# 
   414     0097                     WDTCON          equ	151	;# 
   415     0098                     OSCTUNE         equ	152	;# 
   416     0099                     OSCCON          equ	153	;# 
   417     009A                     OSCSTAT         equ	154	;# 
   418     009B                     ADRES           equ	155	;# 
   419     009B                     ADRESL          equ	155	;# 
   420     009C                     ADRESH          equ	156	;# 
   421     009D                     ADCON0          equ	157	;# 
   422     009E                     ADCON1          equ	158	;# 
   423     010C                     LATA            equ	268	;# 
   424     010E                     LATC            equ	270	;# 
   425     0111                     CM1CON0         equ	273	;# 
   426     0112                     CM1CON1         equ	274	;# 
   427     0113                     CM2CON0         equ	275	;# 
   428     0114                     CM2CON1         equ	276	;# 
   429     0115                     CMOUT           equ	277	;# 
   430     0116                     BORCON          equ	278	;# 
   431     0117                     FVRCON          equ	279	;# 
   432     0118                     DACCON0         equ	280	;# 
   433     0119                     DACCON1         equ	281	;# 
   434     011A                     SRCON0          equ	282	;# 
   435     011B                     SRCON1          equ	283	;# 
   436     011D                     APFCON0         equ	285	;# 
   437     011E                     APFCON1         equ	286	;# 
   438     018C                     ANSELA          equ	396	;# 
   439     018E                     ANSELC          equ	398	;# 
   440     0191                     EEADR           equ	401	;# 
   441     0191                     EEADRL          equ	401	;# 
   442     0192                     EEADRH          equ	402	;# 
   443     0193                     EEDAT           equ	403	;# 
   444     0193                     EEDATL          equ	403	;# 
   445     0193                     EEDATA          equ	403	;# 
   446     0194                     EEDATH          equ	404	;# 
   447     0195                     EECON1          equ	405	;# 
   448     0196                     EECON2          equ	406	;# 
   449     0199                     RCREG           equ	409	;# 
   450     019A                     TXREG           equ	410	;# 
   451     019B                     SPBRG           equ	411	;# 
   452     019B                     SPBRGL          equ	411	;# 
   453     019C                     SPBRGH          equ	412	;# 
   454     019D                     RCSTA           equ	413	;# 
   455     019E                     TXSTA           equ	414	;# 
   456     019F                     BAUDCON         equ	415	;# 
   457     020C                     WPUA            equ	524	;# 
   458     020E                     WPUC            equ	526	;# 
   459     0211                     SSP1BUF         equ	529	;# 
   460     0211                     SSPBUF          equ	529	;# 
   461     0212                     SSP1ADD         equ	530	;# 
   462     0212                     SSPADD          equ	530	;# 
   463     0213                     SSP1MSK         equ	531	;# 
   464     0213                     SSPMSK          equ	531	;# 
   465     0214                     SSP1STAT        equ	532	;# 
   466     0214                     SSPSTAT         equ	532	;# 
   467     0215                     SSP1CON1        equ	533	;# 
   468     0215                     SSPCON1         equ	533	;# 
   469     0215                     SSPCON          equ	533	;# 
   470     0216                     SSP1CON2        equ	534	;# 
   471     0216                     SSPCON2         equ	534	;# 
   472     0217                     SSP1CON3        equ	535	;# 
   473     0217                     SSPCON3         equ	535	;# 
   474     0291                     CCPR1           equ	657	;# 
   475     0291                     CCPR1L          equ	657	;# 
   476     0292                     CCPR1H          equ	658	;# 
   477     0293                     CCP1CON         equ	659	;# 
   478     0294                     PWM1CON         equ	660	;# 
   479     0295                     CCP1AS          equ	661	;# 
   480     0295                     ECCP1AS         equ	661	;# 
   481     0296                     PSTR1CON        equ	662	;# 
   482     0298                     CCPR2           equ	664	;# 
   483     0298                     CCPR2L          equ	664	;# 
   484     0299                     CCPR2H          equ	665	;# 
   485     029A                     CCP2CON         equ	666	;# 
   486     029B                     PWM2CON         equ	667	;# 
   487     029C                     CCP2AS          equ	668	;# 
   488     029D                     PSTR2CON        equ	669	;# 
   489     029E                     CCPTMRS         equ	670	;# 
   490     029E                     CCPTMRS0        equ	670	;# 
   491     0311                     CCPR3           equ	785	;# 
   492     0311                     CCPR3L          equ	785	;# 
   493     0312                     CCPR3H          equ	786	;# 
   494     0313                     CCP3CON         equ	787	;# 
   495     0318                     CCPR4           equ	792	;# 
   496     0318                     CCPR4L          equ	792	;# 
   497     0319                     CCPR4H          equ	793	;# 
   498     031A                     CCP4CON         equ	794	;# 
   499     038C                     INLVLA          equ	908	;# 
   500     038E                     INLVLC          equ	910	;# 
   501     0391                     IOCAP           equ	913	;# 
   502     0392                     IOCAN           equ	914	;# 
   503     0393                     IOCAF           equ	915	;# 
   504     039A                     CLKRCON         equ	922	;# 
   505     039C                     MDCON           equ	924	;# 
   506     039D                     MDSRC           equ	925	;# 
   507     039E                     MDCARL          equ	926	;# 
   508     039F                     MDCARH          equ	927	;# 
   509     0415                     TMR4            equ	1045	;# 
   510     0416                     PR4             equ	1046	;# 
   511     0417                     T4CON           equ	1047	;# 
   512     041C                     TMR6            equ	1052	;# 
   513     041D                     PR6             equ	1053	;# 
   514     041E                     T6CON           equ	1054	;# 
   515     0FE4                     STATUS_SHAD     equ	4068	;# 
   516     0FE5                     WREG_SHAD       equ	4069	;# 
   517     0FE6                     BSR_SHAD        equ	4070	;# 
   518     0FE7                     PCLATH_SHAD     equ	4071	;# 
   519     0FE8                     FSR0L_SHAD      equ	4072	;# 
   520     0FE9                     FSR0H_SHAD      equ	4073	;# 
   521     0FEA                     FSR1L_SHAD      equ	4074	;# 
   522     0FEB                     FSR1H_SHAD      equ	4075	;# 
   523     0FED                     STKPTR          equ	4077	;# 
   524     0FEE                     TOSL            equ	4078	;# 
   525     0FEF                     TOSH            equ	4079	;# 
   526     0000                     INDF0           equ	0	;# 
   527     0001                     INDF1           equ	1	;# 
   528     0002                     PCL             equ	2	;# 
   529     0003                     STATUS          equ	3	;# 
   530     0004                     FSR0L           equ	4	;# 
   531     0005                     FSR0H           equ	5	;# 
   532     0006                     FSR1L           equ	6	;# 
   533     0007                     FSR1H           equ	7	;# 
   534     0008                     BSR             equ	8	;# 
   535     0009                     WREG            equ	9	;# 
   536     000A                     PCLATH          equ	10	;# 
   537     000B                     INTCON          equ	11	;# 
   538     000C                     PORTA           equ	12	;# 
   539     000E                     PORTC           equ	14	;# 
   540     0011                     PIR1            equ	17	;# 
   541     0012                     PIR2            equ	18	;# 
   542     0013                     PIR3            equ	19	;# 
   543     0015                     TMR0            equ	21	;# 
   544     0016                     TMR1            equ	22	;# 
   545     0016                     TMR1L           equ	22	;# 
   546     0017                     TMR1H           equ	23	;# 
   547     0018                     T1CON           equ	24	;# 
   548     0019                     T1GCON          equ	25	;# 
   549     001A                     TMR2            equ	26	;# 
   550     001B                     PR2             equ	27	;# 
   551     001C                     T2CON           equ	28	;# 
   552     001E                     CPSCON0         equ	30	;# 
   553     001F                     CPSCON1         equ	31	;# 
   554     008C                     TRISA           equ	140	;# 
   555     008E                     TRISC           equ	142	;# 
   556     0091                     PIE1            equ	145	;# 
   557     0092                     PIE2            equ	146	;# 
   558     0093                     PIE3            equ	147	;# 
   559     0095                     OPTION_REG      equ	149	;# 
   560     0096                     PCON            equ	150	;# 
   561     0097                     WDTCON          equ	151	;# 
   562     0098                     OSCTUNE         equ	152	;# 
   563     0099                     OSCCON          equ	153	;# 
   564     009A                     OSCSTAT         equ	154	;# 
   565     009B                     ADRES           equ	155	;# 
   566     009B                     ADRESL          equ	155	;# 
   567     009C                     ADRESH          equ	156	;# 
   568     009D                     ADCON0          equ	157	;# 
   569     009E                     ADCON1          equ	158	;# 
   570     010C                     LATA            equ	268	;# 
   571     010E                     LATC            equ	270	;# 
   572     0111                     CM1CON0         equ	273	;# 
   573     0112                     CM1CON1         equ	274	;# 
   574     0113                     CM2CON0         equ	275	;# 
   575     0114                     CM2CON1         equ	276	;# 
   576     0115                     CMOUT           equ	277	;# 
   577     0116                     BORCON          equ	278	;# 
   578     0117                     FVRCON          equ	279	;# 
   579     0118                     DACCON0         equ	280	;# 
   580     0119                     DACCON1         equ	281	;# 
   581     011A                     SRCON0          equ	282	;# 
   582     011B                     SRCON1          equ	283	;# 
   583     011D                     APFCON0         equ	285	;# 
   584     011E                     APFCON1         equ	286	;# 
   585     018C                     ANSELA          equ	396	;# 
   586     018E                     ANSELC          equ	398	;# 
   587     0191                     EEADR           equ	401	;# 
   588     0191                     EEADRL          equ	401	;# 
   589     0192                     EEADRH          equ	402	;# 
   590     0193                     EEDAT           equ	403	;# 
   591     0193                     EEDATL          equ	403	;# 
   592     0193                     EEDATA          equ	403	;# 
   593     0194                     EEDATH          equ	404	;# 
   594     0195                     EECON1          equ	405	;# 
   595     0196                     EECON2          equ	406	;# 
   596     0199                     RCREG           equ	409	;# 
   597     019A                     TXREG           equ	410	;# 
   598     019B                     SPBRG           equ	411	;# 
   599     019B                     SPBRGL          equ	411	;# 
   600     019C                     SPBRGH          equ	412	;# 
   601     019D                     RCSTA           equ	413	;# 
   602     019E                     TXSTA           equ	414	;# 
   603     019F                     BAUDCON         equ	415	;# 
   604     020C                     WPUA            equ	524	;# 
   605     020E                     WPUC            equ	526	;# 
   606     0211                     SSP1BUF         equ	529	;# 
   607     0211                     SSPBUF          equ	529	;# 
   608     0212                     SSP1ADD         equ	530	;# 
   609     0212                     SSPADD          equ	530	;# 
   610     0213                     SSP1MSK         equ	531	;# 
   611     0213                     SSPMSK          equ	531	;# 
   612     0214                     SSP1STAT        equ	532	;# 
   613     0214                     SSPSTAT         equ	532	;# 
   614     0215                     SSP1CON1        equ	533	;# 
   615     0215                     SSPCON1         equ	533	;# 
   616     0215                     SSPCON          equ	533	;# 
   617     0216                     SSP1CON2        equ	534	;# 
   618     0216                     SSPCON2         equ	534	;# 
   619     0217                     SSP1CON3        equ	535	;# 
   620     0217                     SSPCON3         equ	535	;# 
   621     0291                     CCPR1           equ	657	;# 
   622     0291                     CCPR1L          equ	657	;# 
   623     0292                     CCPR1H          equ	658	;# 
   624     0293                     CCP1CON         equ	659	;# 
   625     0294                     PWM1CON         equ	660	;# 
   626     0295                     CCP1AS          equ	661	;# 
   627     0295                     ECCP1AS         equ	661	;# 
   628     0296                     PSTR1CON        equ	662	;# 
   629     0298                     CCPR2           equ	664	;# 
   630     0298                     CCPR2L          equ	664	;# 
   631     0299                     CCPR2H          equ	665	;# 
   632     029A                     CCP2CON         equ	666	;# 
   633     029B                     PWM2CON         equ	667	;# 
   634     029C                     CCP2AS          equ	668	;# 
   635     029D                     PSTR2CON        equ	669	;# 
   636     029E                     CCPTMRS         equ	670	;# 
   637     029E                     CCPTMRS0        equ	670	;# 
   638     0311                     CCPR3           equ	785	;# 
   639     0311                     CCPR3L          equ	785	;# 
   640     0312                     CCPR3H          equ	786	;# 
   641     0313                     CCP3CON         equ	787	;# 
   642     0318                     CCPR4           equ	792	;# 
   643     0318                     CCPR4L          equ	792	;# 
   644     0319                     CCPR4H          equ	793	;# 
   645     031A                     CCP4CON         equ	794	;# 
   646     038C                     INLVLA          equ	908	;# 
   647     038E                     INLVLC          equ	910	;# 
   648     0391                     IOCAP           equ	913	;# 
   649     0392                     IOCAN           equ	914	;# 
   650     0393                     IOCAF           equ	915	;# 
   651     039A                     CLKRCON         equ	922	;# 
   652     039C                     MDCON           equ	924	;# 
   653     039D                     MDSRC           equ	925	;# 
   654     039E                     MDCARL          equ	926	;# 
   655     039F                     MDCARH          equ	927	;# 
   656     0415                     TMR4            equ	1045	;# 
   657     0416                     PR4             equ	1046	;# 
   658     0417                     T4CON           equ	1047	;# 
   659     041C                     TMR6            equ	1052	;# 
   660     041D                     PR6             equ	1053	;# 
   661     041E                     T6CON           equ	1054	;# 
   662     0FE4                     STATUS_SHAD     equ	4068	;# 
   663     0FE5                     WREG_SHAD       equ	4069	;# 
   664     0FE6                     BSR_SHAD        equ	4070	;# 
   665     0FE7                     PCLATH_SHAD     equ	4071	;# 
   666     0FE8                     FSR0L_SHAD      equ	4072	;# 
   667     0FE9                     FSR0H_SHAD      equ	4073	;# 
   668     0FEA                     FSR1L_SHAD      equ	4074	;# 
   669     0FEB                     FSR1H_SHAD      equ	4075	;# 
   670     0FED                     STKPTR          equ	4077	;# 
   671     0FEE                     TOSL            equ	4078	;# 
   672     0FEF                     TOSH            equ	4079	;# 
   673     0000                     INDF0           equ	0	;# 
   674     0001                     INDF1           equ	1	;# 
   675     0002                     PCL             equ	2	;# 
   676     0003                     STATUS          equ	3	;# 
   677     0004                     FSR0L           equ	4	;# 
   678     0005                     FSR0H           equ	5	;# 
   679     0006                     FSR1L           equ	6	;# 
   680     0007                     FSR1H           equ	7	;# 
   681     0008                     BSR             equ	8	;# 
   682     0009                     WREG            equ	9	;# 
   683     000A                     PCLATH          equ	10	;# 
   684     000B                     INTCON          equ	11	;# 
   685     000C                     PORTA           equ	12	;# 
   686     000E                     PORTC           equ	14	;# 
   687     0011                     PIR1            equ	17	;# 
   688     0012                     PIR2            equ	18	;# 
   689     0013                     PIR3            equ	19	;# 
   690     0015                     TMR0            equ	21	;# 
   691     0016                     TMR1            equ	22	;# 
   692     0016                     TMR1L           equ	22	;# 
   693     0017                     TMR1H           equ	23	;# 
   694     0018                     T1CON           equ	24	;# 
   695     0019                     T1GCON          equ	25	;# 
   696     001A                     TMR2            equ	26	;# 
   697     001B                     PR2             equ	27	;# 
   698     001C                     T2CON           equ	28	;# 
   699     001E                     CPSCON0         equ	30	;# 
   700     001F                     CPSCON1         equ	31	;# 
   701     008C                     TRISA           equ	140	;# 
   702     008E                     TRISC           equ	142	;# 
   703     0091                     PIE1            equ	145	;# 
   704     0092                     PIE2            equ	146	;# 
   705     0093                     PIE3            equ	147	;# 
   706     0095                     OPTION_REG      equ	149	;# 
   707     0096                     PCON            equ	150	;# 
   708     0097                     WDTCON          equ	151	;# 
   709     0098                     OSCTUNE         equ	152	;# 
   710     0099                     OSCCON          equ	153	;# 
   711     009A                     OSCSTAT         equ	154	;# 
   712     009B                     ADRES           equ	155	;# 
   713     009B                     ADRESL          equ	155	;# 
   714     009C                     ADRESH          equ	156	;# 
   715     009D                     ADCON0          equ	157	;# 
   716     009E                     ADCON1          equ	158	;# 
   717     010C                     LATA            equ	268	;# 
   718     010E                     LATC            equ	270	;# 
   719     0111                     CM1CON0         equ	273	;# 
   720     0112                     CM1CON1         equ	274	;# 
   721     0113                     CM2CON0         equ	275	;# 
   722     0114                     CM2CON1         equ	276	;# 
   723     0115                     CMOUT           equ	277	;# 
   724     0116                     BORCON          equ	278	;# 
   725     0117                     FVRCON          equ	279	;# 
   726     0118                     DACCON0         equ	280	;# 
   727     0119                     DACCON1         equ	281	;# 
   728     011A                     SRCON0          equ	282	;# 
   729     011B                     SRCON1          equ	283	;# 
   730     011D                     APFCON0         equ	285	;# 
   731     011E                     APFCON1         equ	286	;# 
   732     018C                     ANSELA          equ	396	;# 
   733     018E                     ANSELC          equ	398	;# 
   734     0191                     EEADR           equ	401	;# 
   735     0191                     EEADRL          equ	401	;# 
   736     0192                     EEADRH          equ	402	;# 
   737     0193                     EEDAT           equ	403	;# 
   738     0193                     EEDATL          equ	403	;# 
   739     0193                     EEDATA          equ	403	;# 
   740     0194                     EEDATH          equ	404	;# 
   741     0195                     EECON1          equ	405	;# 
   742     0196                     EECON2          equ	406	;# 
   743     0199                     RCREG           equ	409	;# 
   744     019A                     TXREG           equ	410	;# 
   745     019B                     SPBRG           equ	411	;# 
   746     019B                     SPBRGL          equ	411	;# 
   747     019C                     SPBRGH          equ	412	;# 
   748     019D                     RCSTA           equ	413	;# 
   749     019E                     TXSTA           equ	414	;# 
   750     019F                     BAUDCON         equ	415	;# 
   751     020C                     WPUA            equ	524	;# 
   752     020E                     WPUC            equ	526	;# 
   753     0211                     SSP1BUF         equ	529	;# 
   754     0211                     SSPBUF          equ	529	;# 
   755     0212                     SSP1ADD         equ	530	;# 
   756     0212                     SSPADD          equ	530	;# 
   757     0213                     SSP1MSK         equ	531	;# 
   758     0213                     SSPMSK          equ	531	;# 
   759     0214                     SSP1STAT        equ	532	;# 
   760     0214                     SSPSTAT         equ	532	;# 
   761     0215                     SSP1CON1        equ	533	;# 
   762     0215                     SSPCON1         equ	533	;# 
   763     0215                     SSPCON          equ	533	;# 
   764     0216                     SSP1CON2        equ	534	;# 
   765     0216                     SSPCON2         equ	534	;# 
   766     0217                     SSP1CON3        equ	535	;# 
   767     0217                     SSPCON3         equ	535	;# 
   768     0291                     CCPR1           equ	657	;# 
   769     0291                     CCPR1L          equ	657	;# 
   770     0292                     CCPR1H          equ	658	;# 
   771     0293                     CCP1CON         equ	659	;# 
   772     0294                     PWM1CON         equ	660	;# 
   773     0295                     CCP1AS          equ	661	;# 
   774     0295                     ECCP1AS         equ	661	;# 
   775     0296                     PSTR1CON        equ	662	;# 
   776     0298                     CCPR2           equ	664	;# 
   777     0298                     CCPR2L          equ	664	;# 
   778     0299                     CCPR2H          equ	665	;# 
   779     029A                     CCP2CON         equ	666	;# 
   780     029B                     PWM2CON         equ	667	;# 
   781     029C                     CCP2AS          equ	668	;# 
   782     029D                     PSTR2CON        equ	669	;# 
   783     029E                     CCPTMRS         equ	670	;# 
   784     029E                     CCPTMRS0        equ	670	;# 
   785     0311                     CCPR3           equ	785	;# 
   786     0311                     CCPR3L          equ	785	;# 
   787     0312                     CCPR3H          equ	786	;# 
   788     0313                     CCP3CON         equ	787	;# 
   789     0318                     CCPR4           equ	792	;# 
   790     0318                     CCPR4L          equ	792	;# 
   791     0319                     CCPR4H          equ	793	;# 
   792     031A                     CCP4CON         equ	794	;# 
   793     038C                     INLVLA          equ	908	;# 
   794     038E                     INLVLC          equ	910	;# 
   795     0391                     IOCAP           equ	913	;# 
   796     0392                     IOCAN           equ	914	;# 
   797     0393                     IOCAF           equ	915	;# 
   798     039A                     CLKRCON         equ	922	;# 
   799     039C                     MDCON           equ	924	;# 
   800     039D                     MDSRC           equ	925	;# 
   801     039E                     MDCARL          equ	926	;# 
   802     039F                     MDCARH          equ	927	;# 
   803     0415                     TMR4            equ	1045	;# 
   804     0416                     PR4             equ	1046	;# 
   805     0417                     T4CON           equ	1047	;# 
   806     041C                     TMR6            equ	1052	;# 
   807     041D                     PR6             equ	1053	;# 
   808     041E                     T6CON           equ	1054	;# 
   809     0FE4                     STATUS_SHAD     equ	4068	;# 
   810     0FE5                     WREG_SHAD       equ	4069	;# 
   811     0FE6                     BSR_SHAD        equ	4070	;# 
   812     0FE7                     PCLATH_SHAD     equ	4071	;# 
   813     0FE8                     FSR0L_SHAD      equ	4072	;# 
   814     0FE9                     FSR0H_SHAD      equ	4073	;# 
   815     0FEA                     FSR1L_SHAD      equ	4074	;# 
   816     0FEB                     FSR1H_SHAD      equ	4075	;# 
   817     0FED                     STKPTR          equ	4077	;# 
   818     0FEE                     TOSL            equ	4078	;# 
   819     0FEF                     TOSH            equ	4079	;# 
   820     0000                     INDF0           equ	0	;# 
   821     0001                     INDF1           equ	1	;# 
   822     0002                     PCL             equ	2	;# 
   823     0003                     STATUS          equ	3	;# 
   824     0004                     FSR0L           equ	4	;# 
   825     0005                     FSR0H           equ	5	;# 
   826     0006                     FSR1L           equ	6	;# 
   827     0007                     FSR1H           equ	7	;# 
   828     0008                     BSR             equ	8	;# 
   829     0009                     WREG            equ	9	;# 
   830     000A                     PCLATH          equ	10	;# 
   831     000B                     INTCON          equ	11	;# 
   832     000C                     PORTA           equ	12	;# 
   833     000E                     PORTC           equ	14	;# 
   834     0011                     PIR1            equ	17	;# 
   835     0012                     PIR2            equ	18	;# 
   836     0013                     PIR3            equ	19	;# 
   837     0015                     TMR0            equ	21	;# 
   838     0016                     TMR1            equ	22	;# 
   839     0016                     TMR1L           equ	22	;# 
   840     0017                     TMR1H           equ	23	;# 
   841     0018                     T1CON           equ	24	;# 
   842     0019                     T1GCON          equ	25	;# 
   843     001A                     TMR2            equ	26	;# 
   844     001B                     PR2             equ	27	;# 
   845     001C                     T2CON           equ	28	;# 
   846     001E                     CPSCON0         equ	30	;# 
   847     001F                     CPSCON1         equ	31	;# 
   848     008C                     TRISA           equ	140	;# 
   849     008E                     TRISC           equ	142	;# 
   850     0091                     PIE1            equ	145	;# 
   851     0092                     PIE2            equ	146	;# 
   852     0093                     PIE3            equ	147	;# 
   853     0095                     OPTION_REG      equ	149	;# 
   854     0096                     PCON            equ	150	;# 
   855     0097                     WDTCON          equ	151	;# 
   856     0098                     OSCTUNE         equ	152	;# 
   857     0099                     OSCCON          equ	153	;# 
   858     009A                     OSCSTAT         equ	154	;# 
   859     009B                     ADRES           equ	155	;# 
   860     009B                     ADRESL          equ	155	;# 
   861     009C                     ADRESH          equ	156	;# 
   862     009D                     ADCON0          equ	157	;# 
   863     009E                     ADCON1          equ	158	;# 
   864     010C                     LATA            equ	268	;# 
   865     010E                     LATC            equ	270	;# 
   866     0111                     CM1CON0         equ	273	;# 
   867     0112                     CM1CON1         equ	274	;# 
   868     0113                     CM2CON0         equ	275	;# 
   869     0114                     CM2CON1         equ	276	;# 
   870     0115                     CMOUT           equ	277	;# 
   871     0116                     BORCON          equ	278	;# 
   872     0117                     FVRCON          equ	279	;# 
   873     0118                     DACCON0         equ	280	;# 
   874     0119                     DACCON1         equ	281	;# 
   875     011A                     SRCON0          equ	282	;# 
   876     011B                     SRCON1          equ	283	;# 
   877     011D                     APFCON0         equ	285	;# 
   878     011E                     APFCON1         equ	286	;# 
   879     018C                     ANSELA          equ	396	;# 
   880     018E                     ANSELC          equ	398	;# 
   881     0191                     EEADR           equ	401	;# 
   882     0191                     EEADRL          equ	401	;# 
   883     0192                     EEADRH          equ	402	;# 
   884     0193                     EEDAT           equ	403	;# 
   885     0193                     EEDATL          equ	403	;# 
   886     0193                     EEDATA          equ	403	;# 
   887     0194                     EEDATH          equ	404	;# 
   888     0195                     EECON1          equ	405	;# 
   889     0196                     EECON2          equ	406	;# 
   890     0199                     RCREG           equ	409	;# 
   891     019A                     TXREG           equ	410	;# 
   892     019B                     SPBRG           equ	411	;# 
   893     019B                     SPBRGL          equ	411	;# 
   894     019C                     SPBRGH          equ	412	;# 
   895     019D                     RCSTA           equ	413	;# 
   896     019E                     TXSTA           equ	414	;# 
   897     019F                     BAUDCON         equ	415	;# 
   898     020C                     WPUA            equ	524	;# 
   899     020E                     WPUC            equ	526	;# 
   900     0211                     SSP1BUF         equ	529	;# 
   901     0211                     SSPBUF          equ	529	;# 
   902     0212                     SSP1ADD         equ	530	;# 
   903     0212                     SSPADD          equ	530	;# 
   904     0213                     SSP1MSK         equ	531	;# 
   905     0213                     SSPMSK          equ	531	;# 
   906     0214                     SSP1STAT        equ	532	;# 
   907     0214                     SSPSTAT         equ	532	;# 
   908     0215                     SSP1CON1        equ	533	;# 
   909     0215                     SSPCON1         equ	533	;# 
   910     0215                     SSPCON          equ	533	;# 
   911     0216                     SSP1CON2        equ	534	;# 
   912     0216                     SSPCON2         equ	534	;# 
   913     0217                     SSP1CON3        equ	535	;# 
   914     0217                     SSPCON3         equ	535	;# 
   915     0291                     CCPR1           equ	657	;# 
   916     0291                     CCPR1L          equ	657	;# 
   917     0292                     CCPR1H          equ	658	;# 
   918     0293                     CCP1CON         equ	659	;# 
   919     0294                     PWM1CON         equ	660	;# 
   920     0295                     CCP1AS          equ	661	;# 
   921     0295                     ECCP1AS         equ	661	;# 
   922     0296                     PSTR1CON        equ	662	;# 
   923     0298                     CCPR2           equ	664	;# 
   924     0298                     CCPR2L          equ	664	;# 
   925     0299                     CCPR2H          equ	665	;# 
   926     029A                     CCP2CON         equ	666	;# 
   927     029B                     PWM2CON         equ	667	;# 
   928     029C                     CCP2AS          equ	668	;# 
   929     029D                     PSTR2CON        equ	669	;# 
   930     029E                     CCPTMRS         equ	670	;# 
   931     029E                     CCPTMRS0        equ	670	;# 
   932     0311                     CCPR3           equ	785	;# 
   933     0311                     CCPR3L          equ	785	;# 
   934     0312                     CCPR3H          equ	786	;# 
   935     0313                     CCP3CON         equ	787	;# 
   936     0318                     CCPR4           equ	792	;# 
   937     0318                     CCPR4L          equ	792	;# 
   938     0319                     CCPR4H          equ	793	;# 
   939     031A                     CCP4CON         equ	794	;# 
   940     038C                     INLVLA          equ	908	;# 
   941     038E                     INLVLC          equ	910	;# 
   942     0391                     IOCAP           equ	913	;# 
   943     0392                     IOCAN           equ	914	;# 
   944     0393                     IOCAF           equ	915	;# 
   945     039A                     CLKRCON         equ	922	;# 
   946     039C                     MDCON           equ	924	;# 
   947     039D                     MDSRC           equ	925	;# 
   948     039E                     MDCARL          equ	926	;# 
   949     039F                     MDCARH          equ	927	;# 
   950     0415                     TMR4            equ	1045	;# 
   951     0416                     PR4             equ	1046	;# 
   952     0417                     T4CON           equ	1047	;# 
   953     041C                     TMR6            equ	1052	;# 
   954     041D                     PR6             equ	1053	;# 
   955     041E                     T6CON           equ	1054	;# 
   956     0FE4                     STATUS_SHAD     equ	4068	;# 
   957     0FE5                     WREG_SHAD       equ	4069	;# 
   958     0FE6                     BSR_SHAD        equ	4070	;# 
   959     0FE7                     PCLATH_SHAD     equ	4071	;# 
   960     0FE8                     FSR0L_SHAD      equ	4072	;# 
   961     0FE9                     FSR0H_SHAD      equ	4073	;# 
   962     0FEA                     FSR1L_SHAD      equ	4074	;# 
   963     0FEB                     FSR1H_SHAD      equ	4075	;# 
   964     0FED                     STKPTR          equ	4077	;# 
   965     0FEE                     TOSL            equ	4078	;# 
   966     0FEF                     TOSH            equ	4079	;# 
   967     0000                     INDF0           equ	0	;# 
   968     0001                     INDF1           equ	1	;# 
   969     0002                     PCL             equ	2	;# 
   970     0003                     STATUS          equ	3	;# 
   971     0004                     FSR0L           equ	4	;# 
   972     0005                     FSR0H           equ	5	;# 
   973     0006                     FSR1L           equ	6	;# 
   974     0007                     FSR1H           equ	7	;# 
   975     0008                     BSR             equ	8	;# 
   976     0009                     WREG            equ	9	;# 
   977     000A                     PCLATH          equ	10	;# 
   978     000B                     INTCON          equ	11	;# 
   979     000C                     PORTA           equ	12	;# 
   980     000E                     PORTC           equ	14	;# 
   981     0011                     PIR1            equ	17	;# 
   982     0012                     PIR2            equ	18	;# 
   983     0013                     PIR3            equ	19	;# 
   984     0015                     TMR0            equ	21	;# 
   985     0016                     TMR1            equ	22	;# 
   986     0016                     TMR1L           equ	22	;# 
   987     0017                     TMR1H           equ	23	;# 
   988     0018                     T1CON           equ	24	;# 
   989     0019                     T1GCON          equ	25	;# 
   990     001A                     TMR2            equ	26	;# 
   991     001B                     PR2             equ	27	;# 
   992     001C                     T2CON           equ	28	;# 
   993     001E                     CPSCON0         equ	30	;# 
   994     001F                     CPSCON1         equ	31	;# 
   995     008C                     TRISA           equ	140	;# 
   996     008E                     TRISC           equ	142	;# 
   997     0091                     PIE1            equ	145	;# 
   998     0092                     PIE2            equ	146	;# 
   999     0093                     PIE3            equ	147	;# 
  1000     0095                     OPTION_REG      equ	149	;# 
  1001     0096                     PCON            equ	150	;# 
  1002     0097                     WDTCON          equ	151	;# 
  1003     0098                     OSCTUNE         equ	152	;# 
  1004     0099                     OSCCON          equ	153	;# 
  1005     009A                     OSCSTAT         equ	154	;# 
  1006     009B                     ADRES           equ	155	;# 
  1007     009B                     ADRESL          equ	155	;# 
  1008     009C                     ADRESH          equ	156	;# 
  1009     009D                     ADCON0          equ	157	;# 
  1010     009E                     ADCON1          equ	158	;# 
  1011     010C                     LATA            equ	268	;# 
  1012     010E                     LATC            equ	270	;# 
  1013     0111                     CM1CON0         equ	273	;# 
  1014     0112                     CM1CON1         equ	274	;# 
  1015     0113                     CM2CON0         equ	275	;# 
  1016     0114                     CM2CON1         equ	276	;# 
  1017     0115                     CMOUT           equ	277	;# 
  1018     0116                     BORCON          equ	278	;# 
  1019     0117                     FVRCON          equ	279	;# 
  1020     0118                     DACCON0         equ	280	;# 
  1021     0119                     DACCON1         equ	281	;# 
  1022     011A                     SRCON0          equ	282	;# 
  1023     011B                     SRCON1          equ	283	;# 
  1024     011D                     APFCON0         equ	285	;# 
  1025     011E                     APFCON1         equ	286	;# 
  1026     018C                     ANSELA          equ	396	;# 
  1027     018E                     ANSELC          equ	398	;# 
  1028     0191                     EEADR           equ	401	;# 
  1029     0191                     EEADRL          equ	401	;# 
  1030     0192                     EEADRH          equ	402	;# 
  1031     0193                     EEDAT           equ	403	;# 
  1032     0193                     EEDATL          equ	403	;# 
  1033     0193                     EEDATA          equ	403	;# 
  1034     0194                     EEDATH          equ	404	;# 
  1035     0195                     EECON1          equ	405	;# 
  1036     0196                     EECON2          equ	406	;# 
  1037     0199                     RCREG           equ	409	;# 
  1038     019A                     TXREG           equ	410	;# 
  1039     019B                     SPBRG           equ	411	;# 
  1040     019B                     SPBRGL          equ	411	;# 
  1041     019C                     SPBRGH          equ	412	;# 
  1042     019D                     RCSTA           equ	413	;# 
  1043     019E                     TXSTA           equ	414	;# 
  1044     019F                     BAUDCON         equ	415	;# 
  1045     020C                     WPUA            equ	524	;# 
  1046     020E                     WPUC            equ	526	;# 
  1047     0211                     SSP1BUF         equ	529	;# 
  1048     0211                     SSPBUF          equ	529	;# 
  1049     0212                     SSP1ADD         equ	530	;# 
  1050     0212                     SSPADD          equ	530	;# 
  1051     0213                     SSP1MSK         equ	531	;# 
  1052     0213                     SSPMSK          equ	531	;# 
  1053     0214                     SSP1STAT        equ	532	;# 
  1054     0214                     SSPSTAT         equ	532	;# 
  1055     0215                     SSP1CON1        equ	533	;# 
  1056     0215                     SSPCON1         equ	533	;# 
  1057     0215                     SSPCON          equ	533	;# 
  1058     0216                     SSP1CON2        equ	534	;# 
  1059     0216                     SSPCON2         equ	534	;# 
  1060     0217                     SSP1CON3        equ	535	;# 
  1061     0217                     SSPCON3         equ	535	;# 
  1062     0291                     CCPR1           equ	657	;# 
  1063     0291                     CCPR1L          equ	657	;# 
  1064     0292                     CCPR1H          equ	658	;# 
  1065     0293                     CCP1CON         equ	659	;# 
  1066     0294                     PWM1CON         equ	660	;# 
  1067     0295                     CCP1AS          equ	661	;# 
  1068     0295                     ECCP1AS         equ	661	;# 
  1069     0296                     PSTR1CON        equ	662	;# 
  1070     0298                     CCPR2           equ	664	;# 
  1071     0298                     CCPR2L          equ	664	;# 
  1072     0299                     CCPR2H          equ	665	;# 
  1073     029A                     CCP2CON         equ	666	;# 
  1074     029B                     PWM2CON         equ	667	;# 
  1075     029C                     CCP2AS          equ	668	;# 
  1076     029D                     PSTR2CON        equ	669	;# 
  1077     029E                     CCPTMRS         equ	670	;# 
  1078     029E                     CCPTMRS0        equ	670	;# 
  1079     0311                     CCPR3           equ	785	;# 
  1080     0311                     CCPR3L          equ	785	;# 
  1081     0312                     CCPR3H          equ	786	;# 
  1082     0313                     CCP3CON         equ	787	;# 
  1083     0318                     CCPR4           equ	792	;# 
  1084     0318                     CCPR4L          equ	792	;# 
  1085     0319                     CCPR4H          equ	793	;# 
  1086     031A                     CCP4CON         equ	794	;# 
  1087     038C                     INLVLA          equ	908	;# 
  1088     038E                     INLVLC          equ	910	;# 
  1089     0391                     IOCAP           equ	913	;# 
  1090     0392                     IOCAN           equ	914	;# 
  1091     0393                     IOCAF           equ	915	;# 
  1092     039A                     CLKRCON         equ	922	;# 
  1093     039C                     MDCON           equ	924	;# 
  1094     039D                     MDSRC           equ	925	;# 
  1095     039E                     MDCARL          equ	926	;# 
  1096     039F                     MDCARH          equ	927	;# 
  1097     0415                     TMR4            equ	1045	;# 
  1098     0416                     PR4             equ	1046	;# 
  1099     0417                     T4CON           equ	1047	;# 
  1100     041C                     TMR6            equ	1052	;# 
  1101     041D                     PR6             equ	1053	;# 
  1102     041E                     T6CON           equ	1054	;# 
  1103     0FE4                     STATUS_SHAD     equ	4068	;# 
  1104     0FE5                     WREG_SHAD       equ	4069	;# 
  1105     0FE6                     BSR_SHAD        equ	4070	;# 
  1106     0FE7                     PCLATH_SHAD     equ	4071	;# 
  1107     0FE8                     FSR0L_SHAD      equ	4072	;# 
  1108     0FE9                     FSR0H_SHAD      equ	4073	;# 
  1109     0FEA                     FSR1L_SHAD      equ	4074	;# 
  1110     0FEB                     FSR1H_SHAD      equ	4075	;# 
  1111     0FED                     STKPTR          equ	4077	;# 
  1112     0FEE                     TOSL            equ	4078	;# 
  1113     0FEF                     TOSH            equ	4079	;# 
  1114     0000                     INDF0           equ	0	;# 
  1115     0001                     INDF1           equ	1	;# 
  1116     0002                     PCL             equ	2	;# 
  1117     0003                     STATUS          equ	3	;# 
  1118     0004                     FSR0L           equ	4	;# 
  1119     0005                     FSR0H           equ	5	;# 
  1120     0006                     FSR1L           equ	6	;# 
  1121     0007                     FSR1H           equ	7	;# 
  1122     0008                     BSR             equ	8	;# 
  1123     0009                     WREG            equ	9	;# 
  1124     000A                     PCLATH          equ	10	;# 
  1125     000B                     INTCON          equ	11	;# 
  1126     000C                     PORTA           equ	12	;# 
  1127     000E                     PORTC           equ	14	;# 
  1128     0011                     PIR1            equ	17	;# 
  1129     0012                     PIR2            equ	18	;# 
  1130     0013                     PIR3            equ	19	;# 
  1131     0015                     TMR0            equ	21	;# 
  1132     0016                     TMR1            equ	22	;# 
  1133     0016                     TMR1L           equ	22	;# 
  1134     0017                     TMR1H           equ	23	;# 
  1135     0018                     T1CON           equ	24	;# 
  1136     0019                     T1GCON          equ	25	;# 
  1137     001A                     TMR2            equ	26	;# 
  1138     001B                     PR2             equ	27	;# 
  1139     001C                     T2CON           equ	28	;# 
  1140     001E                     CPSCON0         equ	30	;# 
  1141     001F                     CPSCON1         equ	31	;# 
  1142     008C                     TRISA           equ	140	;# 
  1143     008E                     TRISC           equ	142	;# 
  1144     0091                     PIE1            equ	145	;# 
  1145     0092                     PIE2            equ	146	;# 
  1146     0093                     PIE3            equ	147	;# 
  1147     0095                     OPTION_REG      equ	149	;# 
  1148     0096                     PCON            equ	150	;# 
  1149     0097                     WDTCON          equ	151	;# 
  1150     0098                     OSCTUNE         equ	152	;# 
  1151     0099                     OSCCON          equ	153	;# 
  1152     009A                     OSCSTAT         equ	154	;# 
  1153     009B                     ADRES           equ	155	;# 
  1154     009B                     ADRESL          equ	155	;# 
  1155     009C                     ADRESH          equ	156	;# 
  1156     009D                     ADCON0          equ	157	;# 
  1157     009E                     ADCON1          equ	158	;# 
  1158     010C                     LATA            equ	268	;# 
  1159     010E                     LATC            equ	270	;# 
  1160     0111                     CM1CON0         equ	273	;# 
  1161     0112                     CM1CON1         equ	274	;# 
  1162     0113                     CM2CON0         equ	275	;# 
  1163     0114                     CM2CON1         equ	276	;# 
  1164     0115                     CMOUT           equ	277	;# 
  1165     0116                     BORCON          equ	278	;# 
  1166     0117                     FVRCON          equ	279	;# 
  1167     0118                     DACCON0         equ	280	;# 
  1168     0119                     DACCON1         equ	281	;# 
  1169     011A                     SRCON0          equ	282	;# 
  1170     011B                     SRCON1          equ	283	;# 
  1171     011D                     APFCON0         equ	285	;# 
  1172     011E                     APFCON1         equ	286	;# 
  1173     018C                     ANSELA          equ	396	;# 
  1174     018E                     ANSELC          equ	398	;# 
  1175     0191                     EEADR           equ	401	;# 
  1176     0191                     EEADRL          equ	401	;# 
  1177     0192                     EEADRH          equ	402	;# 
  1178     0193                     EEDAT           equ	403	;# 
  1179     0193                     EEDATL          equ	403	;# 
  1180     0193                     EEDATA          equ	403	;# 
  1181     0194                     EEDATH          equ	404	;# 
  1182     0195                     EECON1          equ	405	;# 
  1183     0196                     EECON2          equ	406	;# 
  1184     0199                     RCREG           equ	409	;# 
  1185     019A                     TXREG           equ	410	;# 
  1186     019B                     SPBRG           equ	411	;# 
  1187     019B                     SPBRGL          equ	411	;# 
  1188     019C                     SPBRGH          equ	412	;# 
  1189     019D                     RCSTA           equ	413	;# 
  1190     019E                     TXSTA           equ	414	;# 
  1191     019F                     BAUDCON         equ	415	;# 
  1192     020C                     WPUA            equ	524	;# 
  1193     020E                     WPUC            equ	526	;# 
  1194     0211                     SSP1BUF         equ	529	;# 
  1195     0211                     SSPBUF          equ	529	;# 
  1196     0212                     SSP1ADD         equ	530	;# 
  1197     0212                     SSPADD          equ	530	;# 
  1198     0213                     SSP1MSK         equ	531	;# 
  1199     0213                     SSPMSK          equ	531	;# 
  1200     0214                     SSP1STAT        equ	532	;# 
  1201     0214                     SSPSTAT         equ	532	;# 
  1202     0215                     SSP1CON1        equ	533	;# 
  1203     0215                     SSPCON1         equ	533	;# 
  1204     0215                     SSPCON          equ	533	;# 
  1205     0216                     SSP1CON2        equ	534	;# 
  1206     0216                     SSPCON2         equ	534	;# 
  1207     0217                     SSP1CON3        equ	535	;# 
  1208     0217                     SSPCON3         equ	535	;# 
  1209     0291                     CCPR1           equ	657	;# 
  1210     0291                     CCPR1L          equ	657	;# 
  1211     0292                     CCPR1H          equ	658	;# 
  1212     0293                     CCP1CON         equ	659	;# 
  1213     0294                     PWM1CON         equ	660	;# 
  1214     0295                     CCP1AS          equ	661	;# 
  1215     0295                     ECCP1AS         equ	661	;# 
  1216     0296                     PSTR1CON        equ	662	;# 
  1217     0298                     CCPR2           equ	664	;# 
  1218     0298                     CCPR2L          equ	664	;# 
  1219     0299                     CCPR2H          equ	665	;# 
  1220     029A                     CCP2CON         equ	666	;# 
  1221     029B                     PWM2CON         equ	667	;# 
  1222     029C                     CCP2AS          equ	668	;# 
  1223     029D                     PSTR2CON        equ	669	;# 
  1224     029E                     CCPTMRS         equ	670	;# 
  1225     029E                     CCPTMRS0        equ	670	;# 
  1226     0311                     CCPR3           equ	785	;# 
  1227     0311                     CCPR3L          equ	785	;# 
  1228     0312                     CCPR3H          equ	786	;# 
  1229     0313                     CCP3CON         equ	787	;# 
  1230     0318                     CCPR4           equ	792	;# 
  1231     0318                     CCPR4L          equ	792	;# 
  1232     0319                     CCPR4H          equ	793	;# 
  1233     031A                     CCP4CON         equ	794	;# 
  1234     038C                     INLVLA          equ	908	;# 
  1235     038E                     INLVLC          equ	910	;# 
  1236     0391                     IOCAP           equ	913	;# 
  1237     0392                     IOCAN           equ	914	;# 
  1238     0393                     IOCAF           equ	915	;# 
  1239     039A                     CLKRCON         equ	922	;# 
  1240     039C                     MDCON           equ	924	;# 
  1241     039D                     MDSRC           equ	925	;# 
  1242     039E                     MDCARL          equ	926	;# 
  1243     039F                     MDCARH          equ	927	;# 
  1244     0415                     TMR4            equ	1045	;# 
  1245     0416                     PR4             equ	1046	;# 
  1246     0417                     T4CON           equ	1047	;# 
  1247     041C                     TMR6            equ	1052	;# 
  1248     041D                     PR6             equ	1053	;# 
  1249     041E                     T6CON           equ	1054	;# 
  1250     0FE4                     STATUS_SHAD     equ	4068	;# 
  1251     0FE5                     WREG_SHAD       equ	4069	;# 
  1252     0FE6                     BSR_SHAD        equ	4070	;# 
  1253     0FE7                     PCLATH_SHAD     equ	4071	;# 
  1254     0FE8                     FSR0L_SHAD      equ	4072	;# 
  1255     0FE9                     FSR0H_SHAD      equ	4073	;# 
  1256     0FEA                     FSR1L_SHAD      equ	4074	;# 
  1257     0FEB                     FSR1H_SHAD      equ	4075	;# 
  1258     0FED                     STKPTR          equ	4077	;# 
  1259     0FEE                     TOSL            equ	4078	;# 
  1260     0FEF                     TOSH            equ	4079	;# 
  1261     0000                     INDF0           equ	0	;# 
  1262     0001                     INDF1           equ	1	;# 
  1263     0002                     PCL             equ	2	;# 
  1264     0003                     STATUS          equ	3	;# 
  1265     0004                     FSR0L           equ	4	;# 
  1266     0005                     FSR0H           equ	5	;# 
  1267     0006                     FSR1L           equ	6	;# 
  1268     0007                     FSR1H           equ	7	;# 
  1269     0008                     BSR             equ	8	;# 
  1270     0009                     WREG            equ	9	;# 
  1271     000A                     PCLATH          equ	10	;# 
  1272     000B                     INTCON          equ	11	;# 
  1273     000C                     PORTA           equ	12	;# 
  1274     000E                     PORTC           equ	14	;# 
  1275     0011                     PIR1            equ	17	;# 
  1276     0012                     PIR2            equ	18	;# 
  1277     0013                     PIR3            equ	19	;# 
  1278     0015                     TMR0            equ	21	;# 
  1279     0016                     TMR1            equ	22	;# 
  1280     0016                     TMR1L           equ	22	;# 
  1281     0017                     TMR1H           equ	23	;# 
  1282     0018                     T1CON           equ	24	;# 
  1283     0019                     T1GCON          equ	25	;# 
  1284     001A                     TMR2            equ	26	;# 
  1285     001B                     PR2             equ	27	;# 
  1286     001C                     T2CON           equ	28	;# 
  1287     001E                     CPSCON0         equ	30	;# 
  1288     001F                     CPSCON1         equ	31	;# 
  1289     008C                     TRISA           equ	140	;# 
  1290     008E                     TRISC           equ	142	;# 
  1291     0091                     PIE1            equ	145	;# 
  1292     0092                     PIE2            equ	146	;# 
  1293     0093                     PIE3            equ	147	;# 
  1294     0095                     OPTION_REG      equ	149	;# 
  1295     0096                     PCON            equ	150	;# 
  1296     0097                     WDTCON          equ	151	;# 
  1297     0098                     OSCTUNE         equ	152	;# 
  1298     0099                     OSCCON          equ	153	;# 
  1299     009A                     OSCSTAT         equ	154	;# 
  1300     009B                     ADRES           equ	155	;# 
  1301     009B                     ADRESL          equ	155	;# 
  1302     009C                     ADRESH          equ	156	;# 
  1303     009D                     ADCON0          equ	157	;# 
  1304     009E                     ADCON1          equ	158	;# 
  1305     010C                     LATA            equ	268	;# 
  1306     010E                     LATC            equ	270	;# 
  1307     0111                     CM1CON0         equ	273	;# 
  1308     0112                     CM1CON1         equ	274	;# 
  1309     0113                     CM2CON0         equ	275	;# 
  1310     0114                     CM2CON1         equ	276	;# 
  1311     0115                     CMOUT           equ	277	;# 
  1312     0116                     BORCON          equ	278	;# 
  1313     0117                     FVRCON          equ	279	;# 
  1314     0118                     DACCON0         equ	280	;# 
  1315     0119                     DACCON1         equ	281	;# 
  1316     011A                     SRCON0          equ	282	;# 
  1317     011B                     SRCON1          equ	283	;# 
  1318     011D                     APFCON0         equ	285	;# 
  1319     011E                     APFCON1         equ	286	;# 
  1320     018C                     ANSELA          equ	396	;# 
  1321     018E                     ANSELC          equ	398	;# 
  1322     0191                     EEADR           equ	401	;# 
  1323     0191                     EEADRL          equ	401	;# 
  1324     0192                     EEADRH          equ	402	;# 
  1325     0193                     EEDAT           equ	403	;# 
  1326     0193                     EEDATL          equ	403	;# 
  1327     0193                     EEDATA          equ	403	;# 
  1328     0194                     EEDATH          equ	404	;# 
  1329     0195                     EECON1          equ	405	;# 
  1330     0196                     EECON2          equ	406	;# 
  1331     0199                     RCREG           equ	409	;# 
  1332     019A                     TXREG           equ	410	;# 
  1333     019B                     SPBRG           equ	411	;# 
  1334     019B                     SPBRGL          equ	411	;# 
  1335     019C                     SPBRGH          equ	412	;# 
  1336     019D                     RCSTA           equ	413	;# 
  1337     019E                     TXSTA           equ	414	;# 
  1338     019F                     BAUDCON         equ	415	;# 
  1339     020C                     WPUA            equ	524	;# 
  1340     020E                     WPUC            equ	526	;# 
  1341     0211                     SSP1BUF         equ	529	;# 
  1342     0211                     SSPBUF          equ	529	;# 
  1343     0212                     SSP1ADD         equ	530	;# 
  1344     0212                     SSPADD          equ	530	;# 
  1345     0213                     SSP1MSK         equ	531	;# 
  1346     0213                     SSPMSK          equ	531	;# 
  1347     0214                     SSP1STAT        equ	532	;# 
  1348     0214                     SSPSTAT         equ	532	;# 
  1349     0215                     SSP1CON1        equ	533	;# 
  1350     0215                     SSPCON1         equ	533	;# 
  1351     0215                     SSPCON          equ	533	;# 
  1352     0216                     SSP1CON2        equ	534	;# 
  1353     0216                     SSPCON2         equ	534	;# 
  1354     0217                     SSP1CON3        equ	535	;# 
  1355     0217                     SSPCON3         equ	535	;# 
  1356     0291                     CCPR1           equ	657	;# 
  1357     0291                     CCPR1L          equ	657	;# 
  1358     0292                     CCPR1H          equ	658	;# 
  1359     0293                     CCP1CON         equ	659	;# 
  1360     0294                     PWM1CON         equ	660	;# 
  1361     0295                     CCP1AS          equ	661	;# 
  1362     0295                     ECCP1AS         equ	661	;# 
  1363     0296                     PSTR1CON        equ	662	;# 
  1364     0298                     CCPR2           equ	664	;# 
  1365     0298                     CCPR2L          equ	664	;# 
  1366     0299                     CCPR2H          equ	665	;# 
  1367     029A                     CCP2CON         equ	666	;# 
  1368     029B                     PWM2CON         equ	667	;# 
  1369     029C                     CCP2AS          equ	668	;# 
  1370     029D                     PSTR2CON        equ	669	;# 
  1371     029E                     CCPTMRS         equ	670	;# 
  1372     029E                     CCPTMRS0        equ	670	;# 
  1373     0311                     CCPR3           equ	785	;# 
  1374     0311                     CCPR3L          equ	785	;# 
  1375     0312                     CCPR3H          equ	786	;# 
  1376     0313                     CCP3CON         equ	787	;# 
  1377     0318                     CCPR4           equ	792	;# 
  1378     0318                     CCPR4L          equ	792	;# 
  1379     0319                     CCPR4H          equ	793	;# 
  1380     031A                     CCP4CON         equ	794	;# 
  1381     038C                     INLVLA          equ	908	;# 
  1382     038E                     INLVLC          equ	910	;# 
  1383     0391                     IOCAP           equ	913	;# 
  1384     0392                     IOCAN           equ	914	;# 
  1385     0393                     IOCAF           equ	915	;# 
  1386     039A                     CLKRCON         equ	922	;# 
  1387     039C                     MDCON           equ	924	;# 
  1388     039D                     MDSRC           equ	925	;# 
  1389     039E                     MDCARL          equ	926	;# 
  1390     039F                     MDCARH          equ	927	;# 
  1391     0415                     TMR4            equ	1045	;# 
  1392     0416                     PR4             equ	1046	;# 
  1393     0417                     T4CON           equ	1047	;# 
  1394     041C                     TMR6            equ	1052	;# 
  1395     041D                     PR6             equ	1053	;# 
  1396     041E                     T6CON           equ	1054	;# 
  1397     0FE4                     STATUS_SHAD     equ	4068	;# 
  1398     0FE5                     WREG_SHAD       equ	4069	;# 
  1399     0FE6                     BSR_SHAD        equ	4070	;# 
  1400     0FE7                     PCLATH_SHAD     equ	4071	;# 
  1401     0FE8                     FSR0L_SHAD      equ	4072	;# 
  1402     0FE9                     FSR0H_SHAD      equ	4073	;# 
  1403     0FEA                     FSR1L_SHAD      equ	4074	;# 
  1404     0FEB                     FSR1H_SHAD      equ	4075	;# 
  1405     0FED                     STKPTR          equ	4077	;# 
  1406     0FEE                     TOSL            equ	4078	;# 
  1407     0FEF                     TOSH            equ	4079	;_dataBuffer
  1408                           
  1409 ;; Function _INT_DefaultInterruptHandler is unused but had its address taken
  1410     0000                     _INT_DefaultInterruptHandler equ	0
  1411                           
  1412 ;; Function _SPI1_Deinitialize is unused but had its address taken
  1413     0000                     _SPI1_Deinitialize equ	0
  1414                           
  1415 ;; Function _SPI1_BufferExchange is unused but had its address taken
  1416     0000                     _SPI1_BufferExchange equ	0
  1417                           
  1418 ;; Function _SPI1_BufferWrite is unused but had its address taken
  1419     0000                     _SPI1_BufferWrite equ	0
  1420                           
  1421 ;; Function _SPI1_BufferRead is unused but had its address taken
  1422     0000                     _SPI1_BufferRead equ	0
  1423                           
  1424 ;; Function _SPI1_ByteWrite is unused but had its address taken
  1425     0000                     _SPI1_ByteWrite equ	0
  1426                           
  1427 ;; Function _SPI1_ByteRead is unused but had its address taken
  1428     0000                     _SPI1_ByteRead  equ	0
  1429                           
  1430 ;; Function _SPI1_IsRxReady is unused but had its address taken
  1431     0000                     _SPI1_IsRxReady equ	0
  1432                           
  1433 ;; Function _SPI1_IsTxReady is unused but had its address taken
  1434     0000                     _SPI1_IsTxReady equ	0
  1435                           
  1436                           	psect	stringtext1
  1437     0800                     __pstringtext1:
  1438     0800                     _SPI1_Host:
  1439     0800  3486               	retlw	low _SPI1_Initialize
  1440     0801  3406               	retlw	high _SPI1_Initialize
  1441     0802  3400               	retlw	0
  1442     0803  3400               	retlw	0
  1443     0804  3486               	retlw	low _SPI1_Open
  1444     0805  3407               	retlw	high _SPI1_Open
  1445     0806  3462               	retlw	low _SPI1_Close
  1446     0807  3406               	retlw	high _SPI1_Close
  1447     0808  3400               	retlw	0
  1448     0809  3400               	retlw	0
  1449     080A  3400               	retlw	0
  1450     080B  3400               	retlw	0
  1451     080C  3400               	retlw	0
  1452     080D  3400               	retlw	0
  1453     080E  349B               	retlw	low _SPI1_ByteExchange
  1454     080F  3406               	retlw	high _SPI1_ByteExchange
  1455     0810  3400               	retlw	0
  1456     0811  3400               	retlw	0
  1457     0812  3400               	retlw	0
  1458     0813  3400               	retlw	0
  1459     0814  3400               	retlw	0
  1460     0815  3400               	retlw	0
  1461     0816  3400               	retlw	0
  1462     0817  3400               	retlw	0
  1463     0818  3400               	retlw	0
  1464     0819  3400               	retlw	0
  1465     081A  3400               	retlw	0
  1466     081B  3400               	retlw	0
  1467     081C                     __end_of_SPI1_Host:
  1468                           
  1469                           	psect	stringtext2
  1470     081C                     __pstringtext2:
  1471     081C                     _spi1_configuration:
  1472     081C  3400               	retlw	0
  1473     081D  341A               	retlw	26
  1474     081E  3410               	retlw	16
  1475     081F  3407               	retlw	7
  1476     0820  3400               	retlw	0
  1477     0821  3440               	retlw	64
  1478     0822  340A               	retlw	10
  1479     0823  3410               	retlw	16
  1480     0824  3407               	retlw	7
  1481     0825  3400               	retlw	0
  1482     0826  3464               	retlw	100
  1483     0827  3400               	retlw	0
  1484     0828  3410               	retlw	16
  1485     0829  3401               	retlw	1
  1486     082A  3400               	retlw	0
  1487     082B                     __end_of_spi1_configuration:
  1488                           
  1489                           	psect	stringtext3
  1490     082B                     __pstringtext3:
  1491     082B                     _ADXL345_init_settings:
  1492     082B  3424               	retlw	36
  1493     082C  3418               	retlw	24
  1494     082D  3403               	retlw	3
  1495     082E  34FF               	retlw	255
  1496     082F  347F               	retlw	127
  1497     0830  3407               	retlw	7
  1498     0831  3418               	retlw	24
  1499     0832  3400               	retlw	0
  1500     0833  3400               	retlw	0
  1501     0834  3417               	retlw	23
  1502     0835  3408               	retlw	8
  1503     0836  3404               	retlw	4
  1504     0837  3400               	retlw	0
  1505     0838                     __end_of_ADXL345_init_settings:
  1506                           
  1507                           	psect	stringtext4
  1508     0838                     __pstringtext4:
  1509     0838                     _ADXL345_data_format:
  1510     0838  3431               	retlw	49
  1511     0839  340B               	retlw	11
  1512     083A                     __end_of_ADXL345_data_format:
  1513                           
  1514                           	psect	nvBANK0
  1515     0020                     __pnvBANK0:
  1516     0020                     _SW1_InterruptHandler:
  1517     0020                     	ds	2
  1518     0022                     _INT_InterruptHandler:
  1519     0022                     	ds	2
  1520     0011                     _PIR1bits       set	17
  1521     000C                     _PORTAbits      set	12
  1522     000B                     _INTCONbits     set	11
  1523     0091                     _PIE1bits       set	145
  1524     0097                     _WDTCON         set	151
  1525     0098                     _OSCTUNE        set	152
  1526     0099                     _OSCCON         set	153
  1527     008E                     _TRISC          set	142
  1528     008C                     _TRISA          set	140
  1529     0095                     _OPTION_REGbits set	149
  1530     010E                     _LATCbits       set	270
  1531     0116                     _BORCON         set	278
  1532     010C                     _LATAbits       set	268
  1533     011D                     _APFCON0        set	285
  1534     010E                     _LATC           set	270
  1535     010C                     _LATA           set	268
  1536     018E                     _ANSELC         set	398
  1537     018C                     _ANSELA         set	396
  1538     0211                     _SSP1BUF        set	529
  1539     0215                     _SSP1CON1bits   set	533
  1540     0212                     _SSP1ADD        set	530
  1541     0217                     _SSP1CON3       set	535
  1542     0215                     _SSP1CON1       set	533
  1543     0214                     _SSP1STAT       set	532
  1544     020E                     _WPUC           set	526
  1545     020C                     _WPUA           set	524
  1546     0393                     _IOCAFbits      set	915
  1547     0393                     _IOCAF          set	915
  1548     0392                     _IOCAN          set	914
  1549     0391                     _IOCAP          set	913
  1550     038E                     _INLVLC         set	910
  1551     038C                     _INLVLA         set	908
  1552                           
  1553                           	psect	cinit
  1554     07F2                     start_initialization:	
  1555                           ; #config settings
  1556                           
  1557     07F2                     __initialization:	;BIGRAM
  1558                           
  1559                           ; Clear objects allocated to BIGRAM
  1560     07F2  30F0               	movlw	low (0+8944)
  1561     07F3  0084               	movwf	4
  1562     07F4  3022               	movlw	high (0+8944)
  1563     07F5  0085               	movwf	5
  1564     07F6  3000               	movlw	0
  1565     07F7  00FE               	movwf	btemp
  1566     07F8  3001               	movlw	1
  1567     07F9  00FF               	movwf	btemp+1
  1568     07FA  3186  26A7  3187   	fcall	clear_ram0
  1569     07FD                     end_of_initialization:	
  1570                           ;End of C runtime variable initialization code
  1571                           
  1572     07FD                     __end_of__initialization:
  1573     07FD  0020               	movlb	0
  1574     07FE  3187  2F4E         	ljmp	_main	;jump to C main() function
  1575                           
  1576                           	psect	clrtext
  1577     06A7                     clear_ram0:	
  1578                           ;	Called with FSR0 containing the base address, and
  1579                           ;	btemp/btemp+1 has the size to clear
  1580                           
  1581     06A7  0064               	clrwdt	;clear the watchdog before getting into this loop
  1582     06A8                     clrloop0:
  1583     06A8  0180               	clrf	0	;clear RAM location pointed to by FSR
  1584     06A9  3101               	addfsr 0,1
  1585     06AA  3001               	movlw	1
  1586     06AB  02FE               	subwf	btemp,f
  1587     06AC  3000               	movlw	0
  1588     06AD  3BFF               	subwfb	btemp+1,f
  1589     06AE  087F               	movf	btemp+1,w
  1590     06AF  047E               	iorwf	btemp,w
  1591     06B0  1D03               	skipz
  1592     06B1  2EA8               	goto	clrloop0	;have we reached the end yet?
  1593     06B2  3400               	retlw	0	;all done for this memory range, return
  1594                           
  1595                           	psect	cstackCOMMON
  1596     0070                     __pcstackCOMMON:
  1597     0070                     ?_INT_SetInterruptHandler:
  1598     0070                     ?_SW1_SetInterruptHandler:	
  1599                           ; 1 bytes @ 0x0
  1600                           
  1601     0070                     ?_SW1_DefaultInterruptHandler:	
  1602                           ; 1 bytes @ 0x0
  1603                           
  1604     0070                     ?_SW1_ISR:	
  1605                           ; 1 bytes @ 0x0
  1606                           
  1607     0070                     ?_SPI1_Initialize:	
  1608                           ; 1 bytes @ 0x0
  1609                           
  1610     0070                     ?_WDT_Initialize:	
  1611                           ; 1 bytes @ 0x0
  1612                           
  1613     0070                     ?_ADXL345_validation:	
  1614                           ; 1 bytes @ 0x0
  1615                           
  1616     0070                     ?_SPI1_Close:	
  1617                           ; 1 bytes @ 0x0
  1618                           
  1619     0070                     ?_SPI1_ByteExchange:	
  1620                           ; 1 bytes @ 0x0
  1621                           
  1622     0070                     ?_INTERRUPT_Initialize:	
  1623                           ; 1 bytes @ 0x0
  1624                           
  1625     0070                     ?_PIN_MANAGER_Initialize:	
  1626                           ; 1 bytes @ 0x0
  1627                           
  1628     0070                     ?_PIN_MANAGER_IOC:	
  1629                           ; 1 bytes @ 0x0
  1630                           
  1631     0070                     ?_CLOCK_Initialize:	
  1632                           ; 1 bytes @ 0x0
  1633                           
  1634     0070                     ?_SYSTEM_Initialize:	
  1635                           ; 1 bytes @ 0x0
  1636                           
  1637     0070                     ?_main:	
  1638                           ; 1 bytes @ 0x0
  1639                           
  1640     0070                     ?___wmul:	
  1641                           ; 2 bytes @ 0x0
  1642                           
  1643     0070                     SPI1_ByteExchange@byteData:	
  1644                           ; 2 bytes @ 0x0
  1645                           
  1646     0070                     INT_SetInterruptHandler@InterruptHandler:	
  1647                           ; 1 bytes @ 0x0
  1648                           
  1649     0070                     SW1_SetInterruptHandler@InterruptHandler:	
  1650                           ; 2 bytes @ 0x0
  1651                           
  1652     0070                     ___wmul@multiplier:	
  1653                           ; 2 bytes @ 0x0
  1654                           
  1655     0070                     ??_SW1_DefaultInterruptHandler:	
  1656                           ; 2 bytes @ 0x0
  1657                           
  1658     0070                     ??_SPI1_Initialize:	
  1659                           ; 1 bytes @ 0x0
  1660                           
  1661     0070                     ??_WDT_Initialize:	
  1662                           ; 1 bytes @ 0x0
  1663                           
  1664     0070                     ??_SPI1_Close:	
  1665                           ; 1 bytes @ 0x0
  1666                           
  1667     0070                     ??_CLOCK_Initialize:	
  1668                           ; 1 bytes @ 0x0
  1669                           
  1670                           
  1671                           ; 1 bytes @ 0x0
  1672     0070                     	ds	1
  1673     0071                     ??_SW1_ISR:
  1674     0071                     ??_SPI1_ByteExchange:	
  1675                           ; 1 bytes @ 0x1
  1676                           
  1677     0071                     ??_PIN_MANAGER_IOC:	
  1678                           ; 1 bytes @ 0x1
  1679                           
  1680                           
  1681                           ; 1 bytes @ 0x1
  1682     0071                     	ds	1
  1683     0072                     ___wmul@multiplicand:
  1684     0072                     ??_INT_SetInterruptHandler:	
  1685                           ; 2 bytes @ 0x2
  1686                           
  1687     0072                     ??_SW1_SetInterruptHandler:	
  1688                           ; 1 bytes @ 0x2
  1689                           
  1690     0072                     ??_INTERRUPT_Initialize:	
  1691                           ; 1 bytes @ 0x2
  1692                           
  1693     0072                     ??_PIN_MANAGER_Initialize:	
  1694                           ; 1 bytes @ 0x2
  1695                           
  1696     0072                     ??_SYSTEM_Initialize:	
  1697                           ; 1 bytes @ 0x2
  1698                           
  1699                           
  1700                           ; 1 bytes @ 0x2
  1701     0072                     	ds	2
  1702     0074                     ___wmul@product:
  1703     0074                     ??___wmul:	
  1704                           ; 2 bytes @ 0x4
  1705                           
  1706                           
  1707                           ; 1 bytes @ 0x4
  1708     0074                     	ds	2
  1709     0076                     ?_SPI1_Open:
  1710     0076                     SPI1_Open@spiConfigIndex:	
  1711                           ; 1 bytes @ 0x6
  1712                           
  1713                           
  1714                           ; 1 bytes @ 0x6
  1715     0076                     	ds	1
  1716     0077                     ??_SPI1_Open:
  1717                           
  1718                           ; 1 bytes @ 0x7
  1719     0077                     	ds	2
  1720     0079                     SPI1_Open@returnValue:
  1721                           
  1722                           ; 1 bytes @ 0x9
  1723     0079                     	ds	1
  1724     007A                     ADXL345_validation@passed:
  1725     007A                     ??_ADXL345_validation:	
  1726                           ; 1 bytes @ 0xA
  1727                           
  1728                           
  1729                           ; 1 bytes @ 0xA
  1730     007A                     	ds	1
  1731     007B                     ??_main:
  1732                           
  1733                           ; 1 bytes @ 0xB
  1734     007B                     	ds	2
  1735                           
  1736                           	psect	maintext
  1737     074E                     __pmaintext:	
  1738 ;;
  1739 ;;Main: autosize = 0, tempsize = 2, incstack = 0, save=0
  1740 ;;
  1741 ;; *************** function _main *****************
  1742 ;; Defined at:
  1743 ;;		line 44 in file "main.c"
  1744 ;; Parameters:    Size  Location     Type
  1745 ;;		None
  1746 ;; Auto vars:     Size  Location     Type
  1747 ;;		None
  1748 ;; Return value:  Size  Location     Type
  1749 ;;                  2  140[None  ] int 
  1750 ;; Registers used:
  1751 ;;		wreg, fsr0l, fsr0h, status,2, status,0, pclath, cstack
  1752 ;; Tracked objects:
  1753 ;;		On entry : B1F/0
  1754 ;;		On exit  : 0/0
  1755 ;;		Unchanged: 0/0
  1756 ;; Data sizes:     COMMON   BANK0   BANK1   BANK2   BANK3   BANK4   BANK5   BANK6   BANK7   BANK8   BANK9  BANK10  BANK1
      +1  BANK12
  1757 ;;      Params:         0       0       0       0       0       0       0       0       0       0       0       0       
      +0       0
  1758 ;;      Locals:         0       0       0       0       0       0       0       0       0       0       0       0       
      +0       0
  1759 ;;      Temps:          2       0       0       0       0       0       0       0       0       0       0       0       
      +0       0
  1760 ;;      Totals:         2       0       0       0       0       0       0       0       0       0       0       0       
      +0       0
  1761 ;;Total ram usage:        2 bytes
  1762 ;; Hardware stack levels required when called: 3
  1763 ;; This function calls:
  1764 ;;		_ADXL345_validation
  1765 ;;		_PIN_MANAGER_IOC
  1766 ;;		_SPI1_Initialize
  1767 ;;		_SYSTEM_Initialize
  1768 ;; This function is called by:
  1769 ;;		Startup code after reset
  1770 ;; This function uses a non-reentrant model
  1771 ;;
  1772                           
  1773     074E                     _main:	
  1774                           ;psect for function _main
  1775                           
  1776     074E                     l1271:	
  1777                           ;incstack = 0
  1778                           ; Regs used in _main: [wreg-fsr0h+status,2+status,0+pclath+cstack]
  1779                           
  1780                           
  1781                           ;main.c: 46:     SYSTEM_Initialize();
  1782     074E  3186  26C2  3187   	fcall	_SYSTEM_Initialize
  1783     0751                     l1273:
  1784                           
  1785                           ;main.c: 47:     SPI1_Initialize();
  1786     0751  3186  2686  3187   	fcall	_SPI1_Initialize
  1787     0754                     l1275:
  1788     0754  0022               	movlb	2	; select bank2
  1789     0755  160E               	bsf	14,4	;volatile
  1790     0756                     l1277:
  1791     0756  158E               	bsf	14,3	;volatile
  1792     0757                     l1279:
  1793                           
  1794                           ;main.c: 52:     if (ADXL345_validation()) {
  1795     0757  3186  26EC  3187   	fcall	_ADXL345_validation
  1796     075A  3A00               	xorlw	0
  1797     075B  1903               	skipnz
  1798     075C  2F5E               	goto	u401
  1799     075D  2F5F               	goto	u400
  1800     075E                     u401:
  1801     075E  2F6F               	goto	l151
  1802     075F                     u400:
  1803     075F                     l146:	
  1804                           ;main.c: 53:         do { LATAbits.LATA4 = 1; } while(0);
  1805                           
  1806     075F  0022               	movlb	2	; select bank2
  1807     0760  160C               	bsf	12,4	;volatile
  1808     0761                     l1281:
  1809                           
  1810                           ;main.c: 54:         _delay((unsigned long)((250)*(4000000/4000.0)));
  1811     0761  3002               	movlw	2
  1812     0762  00FC               	movwf	??_main+1
  1813     0763  3045               	movlw	69
  1814     0764  00FB               	movwf	??_main
  1815     0765  30AA               	movlw	170
  1816     0766                     u427:
  1817     0766  0B89               	decfsz	9,f
  1818     0767  2F66               	goto	u427
  1819     0768  0BFB               	decfsz	??_main,f
  1820     0769  2F66               	goto	u427
  1821     076A  0BFC               	decfsz	??_main+1,f
  1822     076B  2F66               	goto	u427
  1823     076C                     l1283:
  1824     076C  0022               	movlb	2	; select bank2
  1825     076D  120C               	bcf	12,4	;volatile
  1826     076E  2F7E               	goto	l1289
  1827     076F                     l151:	
  1828                           ;main.c: 57:         do { LATAbits.LATA5 = 1; } while(0);
  1829                           
  1830     076F  0022               	movlb	2	; select bank2
  1831     0770  168C               	bsf	12,5	;volatile
  1832     0771                     l1285:
  1833                           
  1834                           ;main.c: 58:         _delay((unsigned long)((250)*(4000000/4000.0)));
  1835     0771  3002               	movlw	2
  1836     0772  00FC               	movwf	??_main+1
  1837     0773  3045               	movlw	69
  1838     0774  00FB               	movwf	??_main
  1839     0775  30AA               	movlw	170
  1840     0776                     u437:
  1841     0776  0B89               	decfsz	9,f
  1842     0777  2F76               	goto	u437
  1843     0778  0BFB               	decfsz	??_main,f
  1844     0779  2F76               	goto	u437
  1845     077A  0BFC               	decfsz	??_main+1,f
  1846     077B  2F76               	goto	u437
  1847     077C                     l1287:
  1848     077C  0022               	movlb	2	; select bank2
  1849     077D  128C               	bcf	12,5	;volatile
  1850     077E                     l1289:
  1851                           
  1852                           ;main.c: 80:     {;main.c: 81:         PIN_MANAGER_IOC();
  1853     077E  3186  267D  3187   	fcall	_PIN_MANAGER_IOC
  1854     0781  0063               	sleep	;# 
  1855     0782                     l1291:
  1856                           
  1857                           ;main.c: 84:         __nop();
  1858     0782  0000               	nop
  1859     0783  2F7E               	goto	l1289
  1860     0784  3180  2802         	ljmp	start
  1861     0786                     __end_of_main:
  1862                           
  1863                           	psect	text1
  1864     06C2                     __ptext1:	
  1865 ;; *************** function _SYSTEM_Initialize *****************
  1866 ;; Defined at:
  1867 ;;		line 39 in file "mcc_generated_files/system/src/system.c"
  1868 ;; Parameters:    Size  Location     Type
  1869 ;;		None
  1870 ;; Auto vars:     Size  Location     Type
  1871 ;;		None
  1872 ;; Return value:  Size  Location     Type
  1873 ;;                  1    wreg      void 
  1874 ;; Registers used:
  1875 ;;		wreg, status,2, status,0, pclath, cstack
  1876 ;; Tracked objects:
  1877 ;;		On entry : 0/0
  1878 ;;		On exit  : 0/0
  1879 ;;		Unchanged: 0/0
  1880 ;; Data sizes:     COMMON   BANK0   BANK1   BANK2   BANK3   BANK4   BANK5   BANK6   BANK7   BANK8   BANK9  BANK10  BANK1
      +1  BANK12
  1881 ;;      Params:         0       0       0       0       0       0       0       0       0       0       0       0       
      +0       0
  1882 ;;      Locals:         0       0       0       0       0       0       0       0       0       0       0       0       
      +0       0
  1883 ;;      Temps:          0       0       0       0       0       0       0       0       0       0       0       0       
      +0       0
  1884 ;;      Totals:         0       0       0       0       0       0       0       0       0       0       0       0       
      +0       0
  1885 ;;Total ram usage:        0 bytes
  1886 ;; Hardware stack levels used: 1
  1887 ;; Hardware stack levels required when called: 2
  1888 ;; This function calls:
  1889 ;;		_CLOCK_Initialize
  1890 ;;		_INTERRUPT_Initialize
  1891 ;;		_PIN_MANAGER_Initialize
  1892 ;;		_SPI1_Initialize
  1893 ;;		_WDT_Initialize
  1894 ;; This function is called by:
  1895 ;;		_main
  1896 ;; This function uses a non-reentrant model
  1897 ;;
  1898                           
  1899     06C2                     _SYSTEM_Initialize:	
  1900                           ;psect for function _SYSTEM_Initialize
  1901                           
  1902     06C2                     l1239:	
  1903                           ;incstack = 0
  1904                           ; Regs used in _SYSTEM_Initialize: [wreg+status,2+status,0+pclath+cstack]
  1905                           
  1906                           
  1907                           ;mcc_generated_files/system/src/system.c: 41:     CLOCK_Initialize();
  1908     06C2  3186  2675  3186   	fcall	_CLOCK_Initialize
  1909     06C5                     l1241:
  1910                           
  1911                           ;mcc_generated_files/system/src/system.c: 42:     PIN_MANAGER_Initialize();
  1912     06C5  3187  2729  3186   	fcall	_PIN_MANAGER_Initialize
  1913     06C8                     l1243:
  1914                           
  1915                           ;mcc_generated_files/system/src/system.c: 43:     SPI1_Initialize();
  1916     06C8  3186  2686  3186   	fcall	_SPI1_Initialize
  1917     06CB                     l1245:
  1918                           
  1919                           ;mcc_generated_files/system/src/system.c: 44:     WDT_Initialize();
  1920     06CB  3186  2665  3186   	fcall	_WDT_Initialize
  1921     06CE                     l1247:
  1922                           
  1923                           ;mcc_generated_files/system/src/system.c: 45:     INTERRUPT_Initialize();
  1924     06CE  3186  2690  3186   	fcall	_INTERRUPT_Initialize
  1925     06D1                     l118:
  1926     06D1  0008               	return
  1927     06D2                     __end_of_SYSTEM_Initialize:
  1928                           
  1929                           	psect	text2
  1930     0665                     __ptext2:	
  1931 ;; *************** function _WDT_Initialize *****************
  1932 ;; Defined at:
  1933 ;;		line 36 in file "mcc_generated_files/system/src/watchdog.c"
  1934 ;; Parameters:    Size  Location     Type
  1935 ;;		None
  1936 ;; Auto vars:     Size  Location     Type
  1937 ;;		None
  1938 ;; Return value:  Size  Location     Type
  1939 ;;                  1    wreg      void 
  1940 ;; Registers used:
  1941 ;;		None
  1942 ;; Tracked objects:
  1943 ;;		On entry : 0/0
  1944 ;;		On exit  : 0/0
  1945 ;;		Unchanged: 0/0
  1946 ;; Data sizes:     COMMON   BANK0   BANK1   BANK2   BANK3   BANK4   BANK5   BANK6   BANK7   BANK8   BANK9  BANK10  BANK1
      +1  BANK12
  1947 ;;      Params:         0       0       0       0       0       0       0       0       0       0       0       0       
      +0       0
  1948 ;;      Locals:         0       0       0       0       0       0       0       0       0       0       0       0       
      +0       0
  1949 ;;      Temps:          0       0       0       0       0       0       0       0       0       0       0       0       
      +0       0
  1950 ;;      Totals:         0       0       0       0       0       0       0       0       0       0       0       0       
      +0       0
  1951 ;;Total ram usage:        0 bytes
  1952 ;; Hardware stack levels used: 1
  1953 ;; This function calls:
  1954 ;;		Nothing
  1955 ;; This function is called by:
  1956 ;;		_SYSTEM_Initialize
  1957 ;; This function uses a non-reentrant model
  1958 ;;
  1959                           
  1960     0665                     _WDT_Initialize:	
  1961                           ;psect for function _WDT_Initialize
  1962                           
  1963     0665                     l985:	
  1964                           ;incstack = 0
  1965                           ; Regs used in _WDT_Initialize: []
  1966                           
  1967                           
  1968                           ;mcc_generated_files/system/src/watchdog.c: 39:     WDTCON = 0x19;
  1969     0665  3019               	movlw	25
  1970     0666  0021               	movlb	1	; select bank1
  1971     0667  0097               	movwf	23	;volatile
  1972     0668                     l163:
  1973     0668  0008               	return
  1974     0669                     __end_of_WDT_Initialize:
  1975                           
  1976                           	psect	text3
  1977     0686                     __ptext3:	
  1978 ;; *************** function _SPI1_Initialize *****************
  1979 ;; Defined at:
  1980 ;;		line 61 in file "mcc_generated_files/spi/src/mssp.c"
  1981 ;; Parameters:    Size  Location     Type
  1982 ;;		None
  1983 ;; Auto vars:     Size  Location     Type
  1984 ;;		None
  1985 ;; Return value:  Size  Location     Type
  1986 ;;                  1    wreg      void 
  1987 ;; Registers used:
  1988 ;;		status,2
  1989 ;; Tracked objects:
  1990 ;;		On entry : 0/0
  1991 ;;		On exit  : 0/0
  1992 ;;		Unchanged: 0/0
  1993 ;; Data sizes:     COMMON   BANK0   BANK1   BANK2   BANK3   BANK4   BANK5   BANK6   BANK7   BANK8   BANK9  BANK10  BANK1
      +1  BANK12
  1994 ;;      Params:         0       0       0       0       0       0       0       0       0       0       0       0       
      +0       0
  1995 ;;      Locals:         0       0       0       0       0       0       0       0       0       0       0       0       
      +0       0
  1996 ;;      Temps:          0       0       0       0       0       0       0       0       0       0       0       0       
      +0       0
  1997 ;;      Totals:         0       0       0       0       0       0       0       0       0       0       0       0       
      +0       0
  1998 ;;Total ram usage:        0 bytes
  1999 ;; Hardware stack levels used: 1
  2000 ;; This function calls:
  2001 ;;		Nothing
  2002 ;; This function is called by:
  2003 ;;		_SYSTEM_Initialize
  2004 ;;		_main
  2005 ;; This function uses a non-reentrant model
  2006 ;;
  2007                           
  2008     0686                     _SPI1_Initialize:	
  2009                           ;psect for function _SPI1_Initialize
  2010                           
  2011     0686                     l981:	
  2012                           ;incstack = 0
  2013                           ; Regs used in _SPI1_Initialize: [status,2]
  2014                           
  2015                           
  2016                           ;mcc_generated_files/spi/src/mssp.c: 64:     PIE1bits.SSP1IE = 0;
  2017     0686  0021               	movlb	1	; select bank1
  2018     0687  1191               	bcf	17,3	;volatile
  2019                           
  2020                           ;mcc_generated_files/spi/src/mssp.c: 65:     PIR1bits.SSP1IF = 0;
  2021     0688  0020               	movlb	0	; select bank0
  2022     0689  1191               	bcf	17,3	;volatile
  2023     068A                     l983:
  2024                           
  2025                           ;mcc_generated_files/spi/src/mssp.c: 67:     SSP1STAT = 0x00;
  2026     068A  0024               	movlb	4	; select bank4
  2027     068B  0194               	clrf	20	;volatile
  2028                           
  2029                           ;mcc_generated_files/spi/src/mssp.c: 68:     SSP1CON1 = 0x00;
  2030     068C  0195               	clrf	21	;volatile
  2031                           
  2032                           ;mcc_generated_files/spi/src/mssp.c: 69:     SSP1CON3 = 0x00;
  2033     068D  0197               	clrf	23	;volatile
  2034                           
  2035                           ;mcc_generated_files/spi/src/mssp.c: 70:     SSP1ADD = 0x00;
  2036     068E  0192               	clrf	18	;volatile
  2037     068F                     l210:
  2038     068F  0008               	return
  2039     0690                     __end_of_SPI1_Initialize:
  2040                           
  2041                           	psect	text4
  2042     0729                     __ptext4:	
  2043 ;; *************** function _PIN_MANAGER_Initialize *****************
  2044 ;; Defined at:
  2045 ;;		line 40 in file "mcc_generated_files/system/src/pins.c"
  2046 ;; Parameters:    Size  Location     Type
  2047 ;;		None
  2048 ;; Auto vars:     Size  Location     Type
  2049 ;;		None
  2050 ;; Return value:  Size  Location     Type
  2051 ;;                  1    wreg      void 
  2052 ;; Registers used:
  2053 ;;		wreg, status,2, status,0, pclath, cstack
  2054 ;; Tracked objects:
  2055 ;;		On entry : 0/0
  2056 ;;		On exit  : 0/0
  2057 ;;		Unchanged: 0/0
  2058 ;; Data sizes:     COMMON   BANK0   BANK1   BANK2   BANK3   BANK4   BANK5   BANK6   BANK7   BANK8   BANK9  BANK10  BANK1
      +1  BANK12
  2059 ;;      Params:         0       0       0       0       0       0       0       0       0       0       0       0       
      +0       0
  2060 ;;      Locals:         0       0       0       0       0       0       0       0       0       0       0       0       
      +0       0
  2061 ;;      Temps:          0       0       0       0       0       0       0       0       0       0       0       0       
      +0       0
  2062 ;;      Totals:         0       0       0       0       0       0       0       0       0       0       0       0       
      +0       0
  2063 ;;Total ram usage:        0 bytes
  2064 ;; Hardware stack levels used: 1
  2065 ;; Hardware stack levels required when called: 1
  2066 ;; This function calls:
  2067 ;;		_SW1_SetInterruptHandler
  2068 ;; This function is called by:
  2069 ;;		_SYSTEM_Initialize
  2070 ;; This function uses a non-reentrant model
  2071 ;;
  2072                           
  2073     0729                     _PIN_MANAGER_Initialize:	
  2074                           ;psect for function _PIN_MANAGER_Initialize
  2075                           
  2076     0729                     l1189:	
  2077                           ;incstack = 0
  2078                           ; Regs used in _PIN_MANAGER_Initialize: [wreg+status,2+status,0+pclath+cstack]
  2079                           
  2080                           
  2081                           ;mcc_generated_files/system/src/pins.c: 45:     LATA = 0x0;
  2082     0729  0022               	movlb	2	; select bank2
  2083     072A  018C               	clrf	12	;volatile
  2084     072B                     l1191:
  2085                           
  2086                           ;mcc_generated_files/system/src/pins.c: 46:     LATC = 0x18;
  2087     072B  3018               	movlw	24
  2088     072C  008E               	movwf	14	;volatile
  2089     072D                     l1193:
  2090                           
  2091                           ;mcc_generated_files/system/src/pins.c: 51:     TRISA = 0xF;
  2092     072D  300F               	movlw	15
  2093     072E  0021               	movlb	1	; select bank1
  2094     072F  008C               	movwf	12	;volatile
  2095     0730                     l1195:
  2096                           
  2097                           ;mcc_generated_files/system/src/pins.c: 52:     TRISC = 0x2;
  2098     0730  3002               	movlw	2
  2099     0731  008E               	movwf	14	;volatile
  2100                           
  2101                           ;mcc_generated_files/system/src/pins.c: 57:     ANSELA = 0x0;
  2102     0732  0023               	movlb	3	; select bank3
  2103     0733  018C               	clrf	12	;volatile
  2104                           
  2105                           ;mcc_generated_files/system/src/pins.c: 58:     ANSELC = 0x0;
  2106     0734  018E               	clrf	14	;volatile
  2107     0735                     l1197:
  2108                           
  2109                           ;mcc_generated_files/system/src/pins.c: 63:     WPUA = 0xA;
  2110     0735  300A               	movlw	10
  2111     0736  0024               	movlb	4	; select bank4
  2112     0737  008C               	movwf	12	;volatile
  2113                           
  2114                           ;mcc_generated_files/system/src/pins.c: 64:     WPUC = 0x0;
  2115     0738  018E               	clrf	14	;volatile
  2116     0739                     l1199:
  2117                           
  2118                           ;mcc_generated_files/system/src/pins.c: 65:     OPTION_REGbits.nWPUEN = 0x0;
  2119     0739  0021               	movlb	1	; select bank1
  2120     073A  1395               	bcf	21,7	;volatile
  2121                           
  2122                           ;mcc_generated_files/system/src/pins.c: 77:     INLVLA = 0x0;
  2123     073B  0027               	movlb	7	; select bank7
  2124     073C  018C               	clrf	12	;volatile
  2125                           
  2126                           ;mcc_generated_files/system/src/pins.c: 78:     INLVLC = 0x0;
  2127     073D  018E               	clrf	14	;volatile
  2128                           
  2129                           ;mcc_generated_files/system/src/pins.c: 87:     APFCON0 = 0x0;
  2130     073E  0022               	movlb	2	; select bank2
  2131     073F  019D               	clrf	29	;volatile
  2132                           
  2133                           ;mcc_generated_files/system/src/pins.c: 92:     IOCAP = 0x0;
  2134     0740  0027               	movlb	7	; select bank7
  2135     0741  0191               	clrf	17	;volatile
  2136     0742                     l1201:
  2137                           
  2138                           ;mcc_generated_files/system/src/pins.c: 93:     IOCAN = 0x2;
  2139     0742  3002               	movlw	2
  2140     0743  0092               	movwf	18	;volatile
  2141                           
  2142                           ;mcc_generated_files/system/src/pins.c: 94:     IOCAF = 0x0;
  2143     0744  0193               	clrf	19	;volatile
  2144     0745                     l1203:
  2145                           
  2146                           ;mcc_generated_files/system/src/pins.c: 96:     SW1_SetInterruptHandler(SW1_DefaultInter
      +                          ruptHandler);
  2147     0745  30D2               	movlw	low _SW1_DefaultInterruptHandler
  2148     0746  00F0               	movwf	SW1_SetInterruptHandler@InterruptHandler
  2149     0747  3006               	movlw	high _SW1_DefaultInterruptHandler
  2150     0748  00F1               	movwf	SW1_SetInterruptHandler@InterruptHandler+1
  2151     0749  3186  266F  3187   	fcall	_SW1_SetInterruptHandler
  2152     074C                     l1205:
  2153                           
  2154                           ;mcc_generated_files/system/src/pins.c: 99:     INTCONbits.IOCIE = 1;
  2155     074C  158B               	bsf	11,3	;volatile
  2156     074D                     l79:
  2157     074D  0008               	return
  2158     074E                     __end_of_PIN_MANAGER_Initialize:
  2159                           
  2160                           	psect	text5
  2161     066F                     __ptext5:	
  2162 ;; *************** function _SW1_SetInterruptHandler *****************
  2163 ;; Defined at:
  2164 ;;		line 129 in file "mcc_generated_files/system/src/pins.c"
  2165 ;; Parameters:    Size  Location     Type
  2166 ;;  InterruptHan    2    0[COMMON] PTR FTN()void 
  2167 ;;		 -> SW1_DefaultInterruptHandler(1), 
  2168 ;; Auto vars:     Size  Location     Type
  2169 ;;		None
  2170 ;; Return value:  Size  Location     Type
  2171 ;;                  1    wreg      void 
  2172 ;; Registers used:
  2173 ;;		wreg
  2174 ;; Tracked objects:
  2175 ;;		On entry : 0/0
  2176 ;;		On exit  : 0/0
  2177 ;;		Unchanged: 0/0
  2178 ;; Data sizes:     COMMON   BANK0   BANK1   BANK2   BANK3   BANK4   BANK5   BANK6   BANK7   BANK8   BANK9  BANK10  BANK1
      +1  BANK12
  2179 ;;      Params:         2       0       0       0       0       0       0       0       0       0       0       0       
      +0       0
  2180 ;;      Locals:         0       0       0       0       0       0       0       0       0       0       0       0       
      +0       0
  2181 ;;      Temps:          0       0       0       0       0       0       0       0       0       0       0       0       
      +0       0
  2182 ;;      Totals:         2       0       0       0       0       0       0       0       0       0       0       0       
      +0       0
  2183 ;;Total ram usage:        2 bytes
  2184 ;; Hardware stack levels used: 1
  2185 ;; This function calls:
  2186 ;;		Nothing
  2187 ;; This function is called by:
  2188 ;;		_PIN_MANAGER_Initialize
  2189 ;; This function uses a non-reentrant model
  2190 ;;
  2191                           
  2192     066F                     _SW1_SetInterruptHandler:	
  2193                           ;psect for function _SW1_SetInterruptHandler
  2194                           
  2195     066F                     l1163:	
  2196                           ;incstack = 0
  2197                           ; Regs used in _SW1_SetInterruptHandler: [wreg]
  2198                           
  2199                           
  2200                           ;mcc_generated_files/system/src/pins.c: 130:     SW1_InterruptHandler = InterruptHandler
      +                          ;
  2201     066F  0871               	movf	SW1_SetInterruptHandler@InterruptHandler+1,w
  2202     0670  0020               	movlb	0	; select bank0
  2203     0671  00A1               	movwf	_SW1_InterruptHandler+1
  2204     0672  0870               	movf	SW1_SetInterruptHandler@InterruptHandler,w
  2205     0673  00A0               	movwf	_SW1_InterruptHandler
  2206     0674                     l90:
  2207     0674  0008               	return
  2208     0675                     __end_of_SW1_SetInterruptHandler:
  2209                           
  2210                           	psect	text6
  2211     0690                     __ptext6:	
  2212 ;; *************** function _INTERRUPT_Initialize *****************
  2213 ;; Defined at:
  2214 ;;		line 40 in file "mcc_generated_files/system/src/interrupt.c"
  2215 ;; Parameters:    Size  Location     Type
  2216 ;;		None
  2217 ;; Auto vars:     Size  Location     Type
  2218 ;;		None
  2219 ;; Return value:  Size  Location     Type
  2220 ;;                  1    wreg      void 
  2221 ;; Registers used:
  2222 ;;		wreg, status,2, status,0, pclath, cstack
  2223 ;; Tracked objects:
  2224 ;;		On entry : 0/0
  2225 ;;		On exit  : 0/0
  2226 ;;		Unchanged: 0/0
  2227 ;; Data sizes:     COMMON   BANK0   BANK1   BANK2   BANK3   BANK4   BANK5   BANK6   BANK7   BANK8   BANK9  BANK10  BANK1
      +1  BANK12
  2228 ;;      Params:         0       0       0       0       0       0       0       0       0       0       0       0       
      +0       0
  2229 ;;      Locals:         0       0       0       0       0       0       0       0       0       0       0       0       
      +0       0
  2230 ;;      Temps:          0       0       0       0       0       0       0       0       0       0       0       0       
      +0       0
  2231 ;;      Totals:         0       0       0       0       0       0       0       0       0       0       0       0       
      +0       0
  2232 ;;Total ram usage:        0 bytes
  2233 ;; Hardware stack levels used: 1
  2234 ;; Hardware stack levels required when called: 1
  2235 ;; This function calls:
  2236 ;;		_INT_SetInterruptHandler
  2237 ;; This function is called by:
  2238 ;;		_SYSTEM_Initialize
  2239 ;; This function uses a non-reentrant model
  2240 ;;
  2241                           
  2242     0690                     _INTERRUPT_Initialize:	
  2243                           ;psect for function _INTERRUPT_Initialize
  2244                           
  2245     0690                     l1185:	
  2246                           ;incstack = 0
  2247                           ; Regs used in _INTERRUPT_Initialize: [wreg+status,2+status,0+pclath+cstack]
  2248                           
  2249                           
  2250                           ;mcc_generated_files/system/src/interrupt.c: 44:     (INTCONbits.INTF = 0);
  2251     0690  108B               	bcf	11,1	;volatile
  2252                           
  2253                           ;mcc_generated_files/system/src/interrupt.c: 45:     (OPTION_REGbits.INTEDG = 1);
  2254     0691  0021               	movlb	1	; select bank1
  2255     0692  1715               	bsf	21,6	;volatile
  2256     0693                     l1187:
  2257                           
  2258                           ;mcc_generated_files/system/src/interrupt.c: 47:     INT_SetInterruptHandler(INT_Default
      +                          InterruptHandler);
  2259     0693  3000               	movlw	0
  2260     0694  00F0               	movwf	INT_SetInterruptHandler@InterruptHandler
  2261     0695  3000               	movlw	0
  2262     0696  00F1               	movwf	INT_SetInterruptHandler@InterruptHandler+1
  2263     0697  3186  2669  3186   	fcall	_INT_SetInterruptHandler
  2264     069A                     l15:
  2265     069A  0008               	return
  2266     069B                     __end_of_INTERRUPT_Initialize:
  2267                           
  2268                           	psect	text7
  2269     0669                     __ptext7:	
  2270 ;; *************** function _INT_SetInterruptHandler *****************
  2271 ;; Defined at:
  2272 ;;		line 71 in file "mcc_generated_files/system/src/interrupt.c"
  2273 ;; Parameters:    Size  Location     Type
  2274 ;;  InterruptHan    2    0[COMMON] PTR FTN()void 
  2275 ;;		 -> INT_DefaultInterruptHandler(1), 
  2276 ;; Auto vars:     Size  Location     Type
  2277 ;;		None
  2278 ;; Return value:  Size  Location     Type
  2279 ;;                  1    wreg      void 
  2280 ;; Registers used:
  2281 ;;		wreg
  2282 ;; Tracked objects:
  2283 ;;		On entry : 0/0
  2284 ;;		On exit  : 0/0
  2285 ;;		Unchanged: 0/0
  2286 ;; Data sizes:     COMMON   BANK0   BANK1   BANK2   BANK3   BANK4   BANK5   BANK6   BANK7   BANK8   BANK9  BANK10  BANK1
      +1  BANK12
  2287 ;;      Params:         2       0       0       0       0       0       0       0       0       0       0       0       
      +0       0
  2288 ;;      Locals:         0       0       0       0       0       0       0       0       0       0       0       0       
      +0       0
  2289 ;;      Temps:          0       0       0       0       0       0       0       0       0       0       0       0       
      +0       0
  2290 ;;      Totals:         2       0       0       0       0       0       0       0       0       0       0       0       
      +0       0
  2291 ;;Total ram usage:        2 bytes
  2292 ;; Hardware stack levels used: 1
  2293 ;; This function calls:
  2294 ;;		Nothing
  2295 ;; This function is called by:
  2296 ;;		_INTERRUPT_Initialize
  2297 ;; This function uses a non-reentrant model
  2298 ;;
  2299                           
  2300     0669                     _INT_SetInterruptHandler:	
  2301                           ;psect for function _INT_SetInterruptHandler
  2302                           
  2303     0669                     l1161:	
  2304                           ;incstack = 0
  2305                           ; Regs used in _INT_SetInterruptHandler: [wreg]
  2306                           
  2307                           
  2308                           ;mcc_generated_files/system/src/interrupt.c: 72:     INT_InterruptHandler = InterruptHan
      +                          dler;
  2309     0669  0871               	movf	INT_SetInterruptHandler@InterruptHandler+1,w
  2310     066A  0020               	movlb	0	; select bank0
  2311     066B  00A3               	movwf	_INT_InterruptHandler+1
  2312     066C  0870               	movf	INT_SetInterruptHandler@InterruptHandler,w
  2313     066D  00A2               	movwf	_INT_InterruptHandler
  2314     066E                     l25:
  2315     066E  0008               	return
  2316     066F                     __end_of_INT_SetInterruptHandler:
  2317                           
  2318                           	psect	text8
  2319     0675                     __ptext8:	
  2320 ;; *************** function _CLOCK_Initialize *****************
  2321 ;; Defined at:
  2322 ;;		line 39 in file "mcc_generated_files/system/src/clock.c"
  2323 ;; Parameters:    Size  Location     Type
  2324 ;;		None
  2325 ;; Auto vars:     Size  Location     Type
  2326 ;;		None
  2327 ;; Return value:  Size  Location     Type
  2328 ;;                  1    wreg      void 
  2329 ;; Registers used:
  2330 ;;		status,2
  2331 ;; Tracked objects:
  2332 ;;		On entry : 0/0
  2333 ;;		On exit  : 0/0
  2334 ;;		Unchanged: 0/0
  2335 ;; Data sizes:     COMMON   BANK0   BANK1   BANK2   BANK3   BANK4   BANK5   BANK6   BANK7   BANK8   BANK9  BANK10  BANK1
      +1  BANK12
  2336 ;;      Params:         0       0       0       0       0       0       0       0       0       0       0       0       
      +0       0
  2337 ;;      Locals:         0       0       0       0       0       0       0       0       0       0       0       0       
      +0       0
  2338 ;;      Temps:          0       0       0       0       0       0       0       0       0       0       0       0       
      +0       0
  2339 ;;      Totals:         0       0       0       0       0       0       0       0       0       0       0       0       
      +0       0
  2340 ;;Total ram usage:        0 bytes
  2341 ;; Hardware stack levels used: 1
  2342 ;; This function calls:
  2343 ;;		Nothing
  2344 ;; This function is called by:
  2345 ;;		_SYSTEM_Initialize
  2346 ;; This function uses a non-reentrant model
  2347 ;;
  2348                           
  2349     0675                     _CLOCK_Initialize:	
  2350                           ;psect for function _CLOCK_Initialize
  2351                           
  2352     0675                     l977:	
  2353                           ;incstack = 0
  2354                           ; Regs used in _CLOCK_Initialize: [status,2]
  2355                           
  2356                           
  2357                           ;mcc_generated_files/system/src/clock.c: 41:     OSCCON = (13 << 0x3)
  2358     0675  306A               	movlw	106
  2359     0676  0021               	movlb	1	; select bank1
  2360     0677  0099               	movwf	25	;volatile
  2361     0678                     l979:
  2362                           
  2363                           ;mcc_generated_files/system/src/clock.c: 44:     BORCON = (0 << 0x7);
  2364     0678  0022               	movlb	2	; select bank2
  2365     0679  0196               	clrf	22	;volatile
  2366                           
  2367                           ;mcc_generated_files/system/src/clock.c: 45:     OSCTUNE = (0 << 0x0);
  2368     067A  0021               	movlb	1	; select bank1
  2369     067B  0198               	clrf	24	;volatile
  2370     067C                     l105:
  2371     067C  0008               	return
  2372     067D                     __end_of_CLOCK_Initialize:
  2373                           
  2374                           	psect	text9
  2375     067D                     __ptext9:	
  2376 ;; *************** function _PIN_MANAGER_IOC *****************
  2377 ;; Defined at:
  2378 ;;		line 102 in file "mcc_generated_files/system/src/pins.c"
  2379 ;; Parameters:    Size  Location     Type
  2380 ;;		None
  2381 ;; Auto vars:     Size  Location     Type
  2382 ;;		None
  2383 ;; Return value:  Size  Location     Type
  2384 ;;                  1    wreg      void 
  2385 ;; Registers used:
  2386 ;;		wreg, status,2, status,0, pclath, cstack
  2387 ;; Tracked objects:
  2388 ;;		On entry : 0/0
  2389 ;;		On exit  : 0/0
  2390 ;;		Unchanged: 0/0
  2391 ;; Data sizes:     COMMON   BANK0   BANK1   BANK2   BANK3   BANK4   BANK5   BANK6   BANK7   BANK8   BANK9  BANK10  BANK1
      +1  BANK12
  2392 ;;      Params:         0       0       0       0       0       0       0       0       0       0       0       0       
      +0       0
  2393 ;;      Locals:         0       0       0       0       0       0       0       0       0       0       0       0       
      +0       0
  2394 ;;      Temps:          0       0       0       0       0       0       0       0       0       0       0       0       
      +0       0
  2395 ;;      Totals:         0       0       0       0       0       0       0       0       0       0       0       0       
      +0       0
  2396 ;;Total ram usage:        0 bytes
  2397 ;; Hardware stack levels used: 1
  2398 ;; Hardware stack levels required when called: 2
  2399 ;; This function calls:
  2400 ;;		_SW1_ISR
  2401 ;; This function is called by:
  2402 ;;		_main
  2403 ;; This function uses a non-reentrant model
  2404 ;;
  2405                           
  2406     067D                     _PIN_MANAGER_IOC:	
  2407                           ;psect for function _PIN_MANAGER_IOC
  2408                           
  2409     067D                     l1235:	
  2410                           ;incstack = 0
  2411                           ; Regs used in _PIN_MANAGER_IOC: [wreg+status,2+status,0+pclath+cstack]
  2412                           
  2413                           
  2414                           ;mcc_generated_files/system/src/pins.c: 105:     if(IOCAFbits.IOCAF1 == 1)
  2415     067D  0027               	movlb	7	; select bank7
  2416     067E  1C93               	btfss	19,1	;volatile
  2417     067F  2E81               	goto	u361
  2418     0680  2E82               	goto	u360
  2419     0681                     u361:
  2420     0681  2E85               	goto	l83
  2421     0682                     u360:
  2422     0682                     l1237:
  2423                           
  2424                           ;mcc_generated_files/system/src/pins.c: 106:     {;mcc_generated_files/system/src/pins.c
      +                          : 107:         SW1_ISR();
  2425     0682  3186  26B3  3186   	fcall	_SW1_ISR
  2426     0685                     l83:
  2427     0685  0008               	return
  2428     0686                     __end_of_PIN_MANAGER_IOC:
  2429                           
  2430                           	psect	text10
  2431     06B3                     __ptext10:	
  2432 ;; *************** function _SW1_ISR *****************
  2433 ;; Defined at:
  2434 ;;		line 114 in file "mcc_generated_files/system/src/pins.c"
  2435 ;; Parameters:    Size  Location     Type
  2436 ;;		None
  2437 ;; Auto vars:     Size  Location     Type
  2438 ;;		None
  2439 ;; Return value:  Size  Location     Type
  2440 ;;                  1    wreg      void 
  2441 ;; Registers used:
  2442 ;;		wreg, status,2, status,0, pclath, cstack
  2443 ;; Tracked objects:
  2444 ;;		On entry : 0/0
  2445 ;;		On exit  : 0/0
  2446 ;;		Unchanged: 0/0
  2447 ;; Data sizes:     COMMON   BANK0   BANK1   BANK2   BANK3   BANK4   BANK5   BANK6   BANK7   BANK8   BANK9  BANK10  BANK1
      +1  BANK12
  2448 ;;      Params:         0       0       0       0       0       0       0       0       0       0       0       0       
      +0       0
  2449 ;;      Locals:         0       0       0       0       0       0       0       0       0       0       0       0       
      +0       0
  2450 ;;      Temps:          0       0       0       0       0       0       0       0       0       0       0       0       
      +0       0
  2451 ;;      Totals:         0       0       0       0       0       0       0       0       0       0       0       0       
      +0       0
  2452 ;;Total ram usage:        0 bytes
  2453 ;; Hardware stack levels used: 1
  2454 ;; Hardware stack levels required when called: 1
  2455 ;; This function calls:
  2456 ;;		NULL
  2457 ;;		_SW1_DefaultInterruptHandler
  2458 ;; This function is called by:
  2459 ;;		_PIN_MANAGER_IOC
  2460 ;; This function uses a non-reentrant model
  2461 ;;
  2462                           
  2463     06B3                     _SW1_ISR:	
  2464                           ;psect for function _SW1_ISR
  2465                           
  2466     06B3                     l1207:	
  2467                           ;incstack = 0
  2468                           ; Regs used in _SW1_ISR: [wreg+status,2+status,0+pclath+cstack]
  2469                           
  2470                           
  2471                           ;mcc_generated_files/system/src/pins.c: 119:     if(SW1_InterruptHandler)
  2472     06B3  0020               	movlb	0	; select bank0
  2473     06B4  0820               	movf	_SW1_InterruptHandler,w
  2474     06B5  0421               	iorwf	_SW1_InterruptHandler+1,w
  2475     06B6  1903               	btfsc	3,2
  2476     06B7  2EB9               	goto	u331
  2477     06B8  2EBA               	goto	u330
  2478     06B9                     u331:
  2479     06B9  2EBF               	goto	l1211
  2480     06BA                     u330:
  2481     06BA                     l1209:
  2482                           
  2483                           ;mcc_generated_files/system/src/pins.c: 120:     {;mcc_generated_files/system/src/pins.c
      +                          : 121:         SW1_InterruptHandler();
  2484     06BA  0821               	movf	_SW1_InterruptHandler+1,w
  2485     06BB  008A               	movwf	10
  2486     06BC  0820               	movf	_SW1_InterruptHandler,w
  2487     06BD  000A               	callw
  2488     06BE  3186               	pagesel	$
  2489     06BF                     l1211:
  2490                           
  2491                           ;mcc_generated_files/system/src/pins.c: 123:     IOCAFbits.IOCAF1 = 0;
  2492     06BF  0027               	movlb	7	; select bank7
  2493     06C0  1093               	bcf	19,1	;volatile
  2494     06C1                     l87:
  2495     06C1  0008               	return
  2496     06C2                     __end_of_SW1_ISR:
  2497                           
  2498                           	psect	text11
  2499     06D2                     __ptext11:	
  2500 ;; *************** function _SW1_DefaultInterruptHandler *****************
  2501 ;; Defined at:
  2502 ;;		line 136 in file "mcc_generated_files/system/src/pins.c"
  2503 ;; Parameters:    Size  Location     Type
  2504 ;;		None
  2505 ;; Auto vars:     Size  Location     Type
  2506 ;;		None
  2507 ;; Return value:  Size  Location     Type
  2508 ;;                  1    wreg      void 
  2509 ;; Registers used:
  2510 ;;		wreg, status,0
  2511 ;; Tracked objects:
  2512 ;;		On entry : 0/0
  2513 ;;		On exit  : 0/0
  2514 ;;		Unchanged: 0/0
  2515 ;; Data sizes:     COMMON   BANK0   BANK1   BANK2   BANK3   BANK4   BANK5   BANK6   BANK7   BANK8   BANK9  BANK10  BANK1
      +1  BANK12
  2516 ;;      Params:         0       0       0       0       0       0       0       0       0       0       0       0       
      +0       0
  2517 ;;      Locals:         0       0       0       0       0       0       0       0       0       0       0       0       
      +0       0
  2518 ;;      Temps:          1       0       0       0       0       0       0       0       0       0       0       0       
      +0       0
  2519 ;;      Totals:         1       0       0       0       0       0       0       0       0       0       0       0       
      +0       0
  2520 ;;Total ram usage:        1 bytes
  2521 ;; Hardware stack levels used: 1
  2522 ;; This function calls:
  2523 ;;		Nothing
  2524 ;; This function is called by:
  2525 ;;		_PIN_MANAGER_Initialize
  2526 ;;		_SW1_ISR
  2527 ;; This function uses a non-reentrant model
  2528 ;;
  2529                           
  2530     06D2                     _SW1_DefaultInterruptHandler:	
  2531                           ;psect for function _SW1_DefaultInterruptHandler
  2532                           
  2533     06D2                     l1165:	
  2534                           ;incstack = 0
  2535                           ; Regs used in _SW1_DefaultInterruptHandler: [wreg+status,0]
  2536                           
  2537                           
  2538                           ;mcc_generated_files/system/src/pins.c: 139:     _delay((unsigned long)((60)*(4000000/40
      +                          00.0)));
  2539     06D2  304E               	movlw	78
  2540     06D3  00F0               	movwf	??_SW1_DefaultInterruptHandler
  2541     06D4  30EB               	movlw	235
  2542     06D5                     u447:
  2543     06D5  0B89               	decfsz	9,f
  2544     06D6  2ED5               	goto	u447
  2545     06D7  0BF0               	decfsz	??_SW1_DefaultInterruptHandler,f
  2546     06D8  2ED5               	goto	u447
  2547     06D9  0000               	nop
  2548     06DA                     l1167:
  2549                           
  2550                           ;mcc_generated_files/system/src/pins.c: 140:     if (PORTAbits.RA1 == 0) {
  2551     06DA  0020               	movlb	0	; select bank0
  2552     06DB  188C               	btfsc	12,1	;volatile
  2553     06DC  2EDE               	goto	u261
  2554     06DD  2EDF               	goto	u260
  2555     06DE                     u261:
  2556     06DE  2EEB               	goto	l96
  2557     06DF                     u260:
  2558     06DF                     l1169:
  2559     06DF  1003               	clrc
  2560     06E0  0022               	movlb	2	; select bank2
  2561     06E1  1E0C               	btfss	12,4	;volatile
  2562     06E2  1403               	setc
  2563     06E3  1803               	btfsc	3,0
  2564     06E4  2EE6               	goto	u271
  2565     06E5  2EE9               	goto	u270
  2566     06E6                     u271:
  2567     06E6  0022               	movlb	2	; select bank2
  2568     06E7  160C               	bsf	12,4	;volatile
  2569     06E8  2EEB               	goto	u284
  2570     06E9                     u270:
  2571     06E9  0022               	movlb	2	; select bank2
  2572     06EA  120C               	bcf	12,4	;volatile
  2573     06EB                     u284:
  2574     06EB                     l96:
  2575     06EB  0008               	return
  2576     06EC                     __end_of_SW1_DefaultInterruptHandler:
  2577                           
  2578                           	psect	text12
  2579     06EC                     __ptext12:	
  2580 ;; *************** function _ADXL345_validation *****************
  2581 ;; Defined at:
  2582 ;;		line 31 in file "ADXL345.c"
  2583 ;; Parameters:    Size  Location     Type
  2584 ;;		None
  2585 ;; Auto vars:     Size  Location     Type
  2586 ;;  passed          1   10[COMMON] _Bool 
  2587 ;; Return value:  Size  Location     Type
  2588 ;;                  1    wreg      _Bool 
  2589 ;; Registers used:
  2590 ;;		wreg, fsr0l, fsr0h, status,2, status,0, pclath, cstack
  2591 ;; Tracked objects:
  2592 ;;		On entry : 0/0
  2593 ;;		On exit  : 0/0
  2594 ;;		Unchanged: 0/0
  2595 ;; Data sizes:     COMMON   BANK0   BANK1   BANK2   BANK3   BANK4   BANK5   BANK6   BANK7   BANK8   BANK9  BANK10  BANK1
      +1  BANK12
  2596 ;;      Params:         0       0       0       0       0       0       0       0       0       0       0       0       
      +0       0
  2597 ;;      Locals:         1       0       0       0       0       0       0       0       0       0       0       0       
      +0       0
  2598 ;;      Temps:          0       0       0       0       0       0       0       0       0       0       0       0       
      +0       0
  2599 ;;      Totals:         1       0       0       0       0       0       0       0       0       0       0       0       
      +0       0
  2600 ;;Total ram usage:        1 bytes
  2601 ;; Hardware stack levels used: 1
  2602 ;; Hardware stack levels required when called: 2
  2603 ;; This function calls:
  2604 ;;		_SPI1_ByteExchange
  2605 ;;		_SPI1_Close
  2606 ;;		_SPI1_Open
  2607 ;; This function is called by:
  2608 ;;		_main
  2609 ;; This function uses a non-reentrant model
  2610 ;;
  2611                           
  2612     06EC                     _ADXL345_validation:	
  2613                           ;psect for function _ADXL345_validation
  2614                           
  2615     06EC                     l1249:	
  2616                           ;incstack = 0
  2617                           ; Regs used in _ADXL345_validation: [wreg-fsr0h+status,2+status,0+pclath+cstack]
  2618                           
  2619                           
  2620                           ;ADXL345.c: 32:     _Bool passed = 0;
  2621     06EC  01FA               	clrf	ADXL345_validation@passed
  2622     06ED                     l1251:
  2623                           
  2624                           ;ADXL345.c: 33:     if (SPI1_Open(ADXL345)) {
  2625     06ED  01F6               	clrf	SPI1_Open@spiConfigIndex
  2626     06EE  3187  2786  3186   	fcall	_SPI1_Open
  2627     06F1  3A00               	xorlw	0
  2628     06F2  1903               	skipnz
  2629     06F3  2EF5               	goto	u371
  2630     06F4  2EF6               	goto	u370
  2631     06F5                     u371:
  2632     06F5  2F05               	goto	l1257
  2633     06F6                     u370:
  2634     06F6                     l293:	
  2635                           ;ADXL345.c: 34:         do { LATCbits.LATC4 = 0; } while(0);
  2636                           
  2637     06F6  0022               	movlb	2	; select bank2
  2638     06F7  120E               	bcf	14,4	;volatile
  2639     06F8                     l1253:
  2640                           
  2641                           ;ADXL345.c: 35:         if (SPI1_ByteExchange(0x00) == 0xE5) {
  2642     06F8  01F0               	clrf	SPI1_ByteExchange@byteData
  2643     06F9  3186  269B  3186   	fcall	_SPI1_ByteExchange
  2644     06FC  3AE5               	xorlw	229
  2645     06FD  1D03               	skipz
  2646     06FE  2F00               	goto	u381
  2647     06FF  2F01               	goto	u380
  2648     0700                     u381:
  2649     0700  2F03               	goto	l296
  2650     0701                     u380:
  2651     0701                     l1255:
  2652                           
  2653                           ;ADXL345.c: 36:             passed = 1;
  2654     0701  3001               	movlw	1
  2655     0702  00FA               	movwf	ADXL345_validation@passed
  2656     0703                     l296:	
  2657                           ;ADXL345.c: 38:         do { LATCbits.LATC4 = 1; } while(0);
  2658                           
  2659     0703  0022               	movlb	2	; select bank2
  2660     0704  160E               	bsf	14,4	;volatile
  2661     0705                     l1257:
  2662                           
  2663                           ;ADXL345.c: 40:     SPI1_Close();
  2664     0705  3186  2662  3186   	fcall	_SPI1_Close
  2665     0708                     l1259:
  2666                           
  2667                           ;ADXL345.c: 41:     return passed;
  2668     0708  087A               	movf	ADXL345_validation@passed,w
  2669     0709                     l298:
  2670     0709  0008               	return
  2671     070A                     __end_of_ADXL345_validation:
  2672                           
  2673                           	psect	text13
  2674     0786                     __ptext13:	
  2675 ;; *************** function _SPI1_Open *****************
  2676 ;; Defined at:
  2677 ;;		line 82 in file "mcc_generated_files/spi/src/mssp.c"
  2678 ;; Parameters:    Size  Location     Type
  2679 ;;  spiConfigInd    1    6[COMMON] unsigned char 
  2680 ;; Auto vars:     Size  Location     Type
  2681 ;;  returnValue     1    9[COMMON] _Bool 
  2682 ;; Return value:  Size  Location     Type
  2683 ;;                  1    wreg      _Bool 
  2684 ;; Registers used:
  2685 ;;		wreg, fsr0l, fsr0h, status,2, status,0, pclath, cstack
  2686 ;; Tracked objects:
  2687 ;;		On entry : 0/0
  2688 ;;		On exit  : 0/0
  2689 ;;		Unchanged: 0/0
  2690 ;; Data sizes:     COMMON   BANK0   BANK1   BANK2   BANK3   BANK4   BANK5   BANK6   BANK7   BANK8   BANK9  BANK10  BANK1
      +1  BANK12
  2691 ;;      Params:         1       0       0       0       0       0       0       0       0       0       0       0       
      +0       0
  2692 ;;      Locals:         1       0       0       0       0       0       0       0       0       0       0       0       
      +0       0
  2693 ;;      Temps:          2       0       0       0       0       0       0       0       0       0       0       0       
      +0       0
  2694 ;;      Totals:         4       0       0       0       0       0       0       0       0       0       0       0       
      +0       0
  2695 ;;Total ram usage:        4 bytes
  2696 ;; Hardware stack levels used: 1
  2697 ;; Hardware stack levels required when called: 1
  2698 ;; This function calls:
  2699 ;;		___wmul
  2700 ;; This function is called by:
  2701 ;;		_ADXL345_validation
  2702 ;;		_ADXL345_init
  2703 ;;		_ADXL345_write
  2704 ;; This function uses a non-reentrant model
  2705 ;;
  2706                           
  2707     0786                     _SPI1_Open:	
  2708                           ;psect for function _SPI1_Open
  2709                           
  2710     0786                     l1213:	
  2711                           ;incstack = 0
  2712                           ; Regs used in _SPI1_Open: [wreg-fsr0h+status,2+status,0+pclath+cstack]
  2713                           
  2714     0786                     l1215:
  2715                           
  2716                           ;mcc_generated_files/spi/src/mssp.c: 85:     if (SSP1CON1bits.SSPEN == 0)
  2717     0786  0024               	movlb	4	; select bank4
  2718     0787  1A95               	btfsc	21,5	;volatile
  2719     0788  2F8A               	goto	u341
  2720     0789  2F8B               	goto	u340
  2721     078A                     u341:
  2722     078A  2FEF               	goto	l1223
  2723     078B                     u340:
  2724     078B                     l1217:
  2725                           
  2726                           ;mcc_generated_files/spi/src/mssp.c: 86:     {;mcc_generated_files/spi/src/mssp.c: 87:  
      +                                 SSP1STAT = spi1_configuration[spiConfigIndex].stat;
  2727     078B  0876               	movf	SPI1_Open@spiConfigIndex,w
  2728     078C  00F7               	movwf	??_SPI1_Open
  2729     078D  01F8               	clrf	??_SPI1_Open+1
  2730     078E  0877               	movf	??_SPI1_Open,w
  2731     078F  00F0               	movwf	___wmul@multiplier
  2732     0790  0878               	movf	??_SPI1_Open+1,w
  2733     0791  00F1               	movwf	___wmul@multiplier+1
  2734     0792  3005               	movlw	5
  2735     0793  00F2               	movwf	___wmul@multiplicand
  2736     0794  3000               	movlw	0
  2737     0795  00F3               	movwf	___wmul@multiplicand+1
  2738     0796  3187  270A  3187   	fcall	___wmul
  2739     0799  301C               	movlw	low _spi1_configuration
  2740     079A  0770               	addwf	?___wmul,w
  2741     079B  0084               	movwf	4
  2742     079C  3008               	movlw	high _spi1_configuration
  2743     079D  3D71               	addwfc	?___wmul+1,w
  2744     079E  3880               	iorlw	128
  2745     079F  0085               	movwf	5
  2746     07A0  0800               	movf	0,w	;code access
  2747     07A1  0024               	movlb	4	; select bank4
  2748     07A2  0094               	movwf	20	;volatile
  2749                           
  2750                           ;mcc_generated_files/spi/src/mssp.c: 88:         SSP1CON1 = spi1_configuration[spiConfig
      +                          Index].con1;
  2751     07A3  0876               	movf	SPI1_Open@spiConfigIndex,w
  2752     07A4  00F7               	movwf	??_SPI1_Open
  2753     07A5  01F8               	clrf	??_SPI1_Open+1
  2754     07A6  0877               	movf	??_SPI1_Open,w
  2755     07A7  00F0               	movwf	___wmul@multiplier
  2756     07A8  0878               	movf	??_SPI1_Open+1,w
  2757     07A9  00F1               	movwf	___wmul@multiplier+1
  2758     07AA  3005               	movlw	5
  2759     07AB  00F2               	movwf	___wmul@multiplicand
  2760     07AC  3000               	movlw	0
  2761     07AD  00F3               	movwf	___wmul@multiplicand+1
  2762     07AE  3187  270A  3187   	fcall	___wmul
  2763     07B1  301D               	movlw	low (_spi1_configuration+1)
  2764     07B2  0770               	addwf	?___wmul,w
  2765     07B3  0084               	movwf	4
  2766     07B4  3008               	movlw	high (_spi1_configuration+1)
  2767     07B5  3D71               	addwfc	?___wmul+1,w
  2768     07B6  3880               	iorlw	128
  2769     07B7  0085               	movwf	5
  2770     07B8  0800               	movf	0,w	;code access
  2771     07B9  0024               	movlb	4	; select bank4
  2772     07BA  0095               	movwf	21	;volatile
  2773                           
  2774                           ;mcc_generated_files/spi/src/mssp.c: 89:         SSP1CON3 = spi1_configuration[spiConfig
      +                          Index].con3;
  2775     07BB  0876               	movf	SPI1_Open@spiConfigIndex,w
  2776     07BC  00F7               	movwf	??_SPI1_Open
  2777     07BD  01F8               	clrf	??_SPI1_Open+1
  2778     07BE  0877               	movf	??_SPI1_Open,w
  2779     07BF  00F0               	movwf	___wmul@multiplier
  2780     07C0  0878               	movf	??_SPI1_Open+1,w
  2781     07C1  00F1               	movwf	___wmul@multiplier+1
  2782     07C2  3005               	movlw	5
  2783     07C3  00F2               	movwf	___wmul@multiplicand
  2784     07C4  3000               	movlw	0
  2785     07C5  00F3               	movwf	___wmul@multiplicand+1
  2786     07C6  3187  270A  3187   	fcall	___wmul
  2787     07C9  301E               	movlw	low (_spi1_configuration+2)
  2788     07CA  0770               	addwf	?___wmul,w
  2789     07CB  0084               	movwf	4
  2790     07CC  3008               	movlw	high (_spi1_configuration+2)
  2791     07CD  3D71               	addwfc	?___wmul+1,w
  2792     07CE  3880               	iorlw	128
  2793     07CF  0085               	movwf	5
  2794     07D0  0800               	movf	0,w	;code access
  2795     07D1  0024               	movlb	4	; select bank4
  2796     07D2  0097               	movwf	23	;volatile
  2797                           
  2798                           ;mcc_generated_files/spi/src/mssp.c: 90:         SSP1ADD = spi1_configuration[spiConfigI
      +                          ndex].baud;
  2799     07D3  0876               	movf	SPI1_Open@spiConfigIndex,w
  2800     07D4  00F7               	movwf	??_SPI1_Open
  2801     07D5  01F8               	clrf	??_SPI1_Open+1
  2802     07D6  0877               	movf	??_SPI1_Open,w
  2803     07D7  00F0               	movwf	___wmul@multiplier
  2804     07D8  0878               	movf	??_SPI1_Open+1,w
  2805     07D9  00F1               	movwf	___wmul@multiplier+1
  2806     07DA  3005               	movlw	5
  2807     07DB  00F2               	movwf	___wmul@multiplicand
  2808     07DC  3000               	movlw	0
  2809     07DD  00F3               	movwf	___wmul@multiplicand+1
  2810     07DE  3187  270A  3187   	fcall	___wmul
  2811     07E1  301F               	movlw	low (_spi1_configuration+3)
  2812     07E2  0770               	addwf	?___wmul,w
  2813     07E3  0084               	movwf	4
  2814     07E4  3008               	movlw	high (_spi1_configuration+3)
  2815     07E5  3D71               	addwfc	?___wmul+1,w
  2816     07E6  3880               	iorlw	128
  2817     07E7  0085               	movwf	5
  2818     07E8  0800               	movf	0,w	;code access
  2819     07E9  0024               	movlb	4	; select bank4
  2820     07EA  0092               	movwf	18	;volatile
  2821     07EB                     l1219:
  2822                           
  2823                           ;mcc_generated_files/spi/src/mssp.c: 92:         SSP1CON1bits.SSPEN = 1;
  2824     07EB  1695               	bsf	21,5	;volatile
  2825     07EC                     l1221:
  2826                           
  2827                           ;mcc_generated_files/spi/src/mssp.c: 94:         returnValue = 1;
  2828     07EC  3001               	movlw	1
  2829     07ED  00F9               	movwf	SPI1_Open@returnValue
  2830                           
  2831                           ;mcc_generated_files/spi/src/mssp.c: 95:     }
  2832     07EE  2FF0               	goto	l1225
  2833     07EF                     l1223:
  2834                           
  2835                           ;mcc_generated_files/spi/src/mssp.c: 97:     {;mcc_generated_files/spi/src/mssp.c: 98:  
      +                                 returnValue = 0;
  2836     07EF  01F9               	clrf	SPI1_Open@returnValue
  2837     07F0                     l1225:
  2838                           
  2839                           ;mcc_generated_files/spi/src/mssp.c: 100:     return returnValue;
  2840     07F0  0879               	movf	SPI1_Open@returnValue,w
  2841     07F1                     l218:
  2842     07F1  0008               	return
  2843     07F2                     __end_of_SPI1_Open:
  2844                           
  2845                           	psect	text14
  2846     070A                     __ptext14:	
  2847 ;; *************** function ___wmul *****************
  2848 ;; Defined at:
  2849 ;;		line 15 in file "C:\Program Files\Microchip\xc8\v3.00\pic\sources\c99\common\Umul16.c"
  2850 ;; Parameters:    Size  Location     Type
  2851 ;;  multiplier      2    0[COMMON] unsigned int 
  2852 ;;  multiplicand    2    2[COMMON] unsigned int 
  2853 ;; Auto vars:     Size  Location     Type
  2854 ;;  product         2    4[COMMON] unsigned int 
  2855 ;; Return value:  Size  Location     Type
  2856 ;;                  2    0[COMMON] unsigned int 
  2857 ;; Registers used:
  2858 ;;		wreg, status,2, status,0
  2859 ;; Tracked objects:
  2860 ;;		On entry : 0/0
  2861 ;;		On exit  : 0/0
  2862 ;;		Unchanged: 0/0
  2863 ;; Data sizes:     COMMON   BANK0   BANK1   BANK2   BANK3   BANK4   BANK5   BANK6   BANK7   BANK8   BANK9  BANK10  BANK1
      +1  BANK12
  2864 ;;      Params:         4       0       0       0       0       0       0       0       0       0       0       0       
      +0       0
  2865 ;;      Locals:         2       0       0       0       0       0       0       0       0       0       0       0       
      +0       0
  2866 ;;      Temps:          0       0       0       0       0       0       0       0       0       0       0       0       
      +0       0
  2867 ;;      Totals:         6       0       0       0       0       0       0       0       0       0       0       0       
      +0       0
  2868 ;;Total ram usage:        6 bytes
  2869 ;; Hardware stack levels used: 1
  2870 ;; This function calls:
  2871 ;;		Nothing
  2872 ;; This function is called by:
  2873 ;;		_SPI1_Open
  2874 ;; This function uses a non-reentrant model
  2875 ;;
  2876                           
  2877     070A                     ___wmul:	
  2878                           ;psect for function ___wmul
  2879                           
  2880     070A                     l1171:	
  2881                           ;incstack = 0
  2882                           ; Regs used in ___wmul: [wreg+status,2+status,0]
  2883                           
  2884     070A  01F4               	clrf	___wmul@product
  2885     070B  01F5               	clrf	___wmul@product+1
  2886     070C                     l1173:
  2887     070C  1C70               	btfss	___wmul@multiplier,0
  2888     070D  2F0F               	goto	u291
  2889     070E  2F10               	goto	u290
  2890     070F                     u291:
  2891     070F  2F14               	goto	l467
  2892     0710                     u290:
  2893     0710                     l1175:
  2894     0710  0872               	movf	___wmul@multiplicand,w
  2895     0711  07F4               	addwf	___wmul@product,f
  2896     0712  0873               	movf	___wmul@multiplicand+1,w
  2897     0713  3DF5               	addwfc	___wmul@product+1,f
  2898     0714                     l467:
  2899     0714  3001               	movlw	1
  2900     0715                     u305:
  2901     0715  35F2               	lslf	___wmul@multiplicand,f
  2902     0716  0DF3               	rlf	___wmul@multiplicand+1,f
  2903     0717  0B89               	decfsz	9,f
  2904     0718  2F15               	goto	u305
  2905     0719                     l1177:
  2906     0719  3001               	movlw	1
  2907     071A                     u315:
  2908     071A  36F1               	lsrf	___wmul@multiplier+1,f
  2909     071B  0CF0               	rrf	___wmul@multiplier,f
  2910     071C  0B89               	decfsz	9,f
  2911     071D  2F1A               	goto	u315
  2912     071E                     l1179:
  2913     071E  0870               	movf	___wmul@multiplier,w
  2914     071F  0471               	iorwf	___wmul@multiplier+1,w
  2915     0720  1D03               	btfss	3,2
  2916     0721  2F23               	goto	u321
  2917     0722  2F24               	goto	u320
  2918     0723                     u321:
  2919     0723  2F0C               	goto	l1173
  2920     0724                     u320:
  2921     0724                     l1181:
  2922     0724  0875               	movf	___wmul@product+1,w
  2923     0725  00F1               	movwf	?___wmul+1
  2924     0726  0874               	movf	___wmul@product,w
  2925     0727  00F0               	movwf	?___wmul
  2926     0728                     l469:
  2927     0728  0008               	return
  2928     0729                     __end_of___wmul:
  2929                           
  2930                           	psect	text15
  2931     0662                     __ptext15:	
  2932 ;; *************** function _SPI1_Close *****************
  2933 ;; Defined at:
  2934 ;;		line 103 in file "mcc_generated_files/spi/src/mssp.c"
  2935 ;; Parameters:    Size  Location     Type
  2936 ;;		None
  2937 ;; Auto vars:     Size  Location     Type
  2938 ;;		None
  2939 ;; Return value:  Size  Location     Type
  2940 ;;                  1    wreg      void 
  2941 ;; Registers used:
  2942 ;;		None
  2943 ;; Tracked objects:
  2944 ;;		On entry : 0/0
  2945 ;;		On exit  : 0/0
  2946 ;;		Unchanged: 0/0
  2947 ;; Data sizes:     COMMON   BANK0   BANK1   BANK2   BANK3   BANK4   BANK5   BANK6   BANK7   BANK8   BANK9  BANK10  BANK1
      +1  BANK12
  2948 ;;      Params:         0       0       0       0       0       0       0       0       0       0       0       0       
      +0       0
  2949 ;;      Locals:         0       0       0       0       0       0       0       0       0       0       0       0       
      +0       0
  2950 ;;      Temps:          0       0       0       0       0       0       0       0       0       0       0       0       
      +0       0
  2951 ;;      Totals:         0       0       0       0       0       0       0       0       0       0       0       0       
      +0       0
  2952 ;;Total ram usage:        0 bytes
  2953 ;; Hardware stack levels used: 1
  2954 ;; This function calls:
  2955 ;;		Nothing
  2956 ;; This function is called by:
  2957 ;;		_ADXL345_validation
  2958 ;;		_ADXL345_write
  2959 ;; This function uses a non-reentrant model
  2960 ;;
  2961                           
  2962     0662                     _SPI1_Close:	
  2963                           ;psect for function _SPI1_Close
  2964                           
  2965     0662                     l1003:	
  2966                           ;incstack = 0
  2967                           ; Regs used in _SPI1_Close: []
  2968                           
  2969                           
  2970                           ;mcc_generated_files/spi/src/mssp.c: 105:     SSP1CON1bits.SSPEN = 0;
  2971     0662  0024               	movlb	4	; select bank4
  2972     0663  1295               	bcf	21,5	;volatile
  2973     0664                     l221:
  2974     0664  0008               	return
  2975     0665                     __end_of_SPI1_Close:
  2976                           
  2977                           	psect	text16
  2978     069B                     __ptext16:	
  2979 ;; *************** function _SPI1_ByteExchange *****************
  2980 ;; Defined at:
  2981 ;;		line 161 in file "mcc_generated_files/spi/src/mssp.c"
  2982 ;; Parameters:    Size  Location     Type
  2983 ;;  byteData        1    0[COMMON] unsigned char 
  2984 ;; Auto vars:     Size  Location     Type
  2985 ;;		None
  2986 ;; Return value:  Size  Location     Type
  2987 ;;                  1    wreg      unsigned char 
  2988 ;; Registers used:
  2989 ;;		wreg
  2990 ;; Tracked objects:
  2991 ;;		On entry : 0/0
  2992 ;;		On exit  : 0/0
  2993 ;;		Unchanged: 0/0
  2994 ;; Data sizes:     COMMON   BANK0   BANK1   BANK2   BANK3   BANK4   BANK5   BANK6   BANK7   BANK8   BANK9  BANK10  BANK1
      +1  BANK12
  2995 ;;      Params:         1       0       0       0       0       0       0       0       0       0       0       0       
      +0       0
  2996 ;;      Locals:         0       0       0       0       0       0       0       0       0       0       0       0       
      +0       0
  2997 ;;      Temps:          0       0       0       0       0       0       0       0       0       0       0       0       
      +0       0
  2998 ;;      Totals:         1       0       0       0       0       0       0       0       0       0       0       0       
      +0       0
  2999 ;;Total ram usage:        1 bytes
  3000 ;; Hardware stack levels used: 1
  3001 ;; This function calls:
  3002 ;;		Nothing
  3003 ;; This function is called by:
  3004 ;;		_ADXL345_validation
  3005 ;; This function uses a non-reentrant model
  3006 ;;
  3007                           
  3008     069B                     _SPI1_ByteExchange:	
  3009                           ;psect for function _SPI1_ByteExchange
  3010                           
  3011     069B                     l1229:	
  3012                           ;incstack = 0
  3013                           ; Regs used in _SPI1_ByteExchange: [wreg]
  3014                           
  3015                           
  3016                           ;mcc_generated_files/spi/src/mssp.c: 161: uint8_t SPI1_ByteExchange(uint8_t byteData);mc
      +                          c_generated_files/spi/src/mssp.c: 162: {;mcc_generated_files/spi/src/mssp.c: 163:     SS
      +                          P1BUF = byteData;
  3017     069B  0870               	movf	SPI1_ByteExchange@byteData,w
  3018     069C  0024               	movlb	4	; select bank4
  3019     069D  0091               	movwf	17	;volatile
  3020     069E                     l251:	
  3021                           ;mcc_generated_files/spi/src/mssp.c: 165:     {;mcc_generated_files/spi/src/mssp.c: 167:
      +                               }
  3022                           
  3023                           
  3024                           ;mcc_generated_files/spi/src/mssp.c: 164:     while (!PIR1bits.SSP1IF)
  3025     069E  0020               	movlb	0	; select bank0
  3026     069F  1D91               	btfss	17,3	;volatile
  3027     06A0  2EA2               	goto	u351
  3028     06A1  2EA3               	goto	u350
  3029     06A2                     u351:
  3030     06A2  2E9E               	goto	l251
  3031     06A3                     u350:
  3032     06A3                     l253:
  3033                           
  3034                           ;mcc_generated_files/spi/src/mssp.c: 168:     PIR1bits.SSP1IF = 0;
  3035     06A3  1191               	bcf	17,3	;volatile
  3036     06A4                     l1231:
  3037                           
  3038                           ;mcc_generated_files/spi/src/mssp.c: 169:     return SSP1BUF;
  3039     06A4  0024               	movlb	4	; select bank4
  3040     06A5  0811               	movf	17,w	;volatile
  3041     06A6                     l254:
  3042     06A6  0008               	return
  3043     06A7                     __end_of_SPI1_ByteExchange:
  3044     0002                     ___latbits      equ	2
  3045     007E                     btemp           set	126	;btemp
  3046     007E                     wtemp0          set	126
  3047     22F0                     __pbssBIGRAM    equ	8944
  3048                           
  3049                           	psect	config
  3050                           
  3051                           ;Config register CONFIG1 @ 0x8007
  3052                           ;	Oscillator Selection
  3053                           ;	FOSC = INTOSC, INTOSC oscillator: I/O function on CLKIN pin
  3054                           ;	Watchdog Timer Enable
  3055                           ;	WDTE = SWDTEN, WDT controlled by the SWDTEN bit in the WDTCON register
  3056                           ;	Power-up Timer Enable
  3057                           ;	PWRTE = ON, PWRT enabled
  3058                           ;	MCLR Pin Function Select
  3059                           ;	MCLRE = ON, MCLR/VPP pin function is MCLR
  3060                           ;	Flash Program Memory Code Protection
  3061                           ;	CP = OFF, Program memory code protection is disabled
  3062                           ;	Data Memory Code Protection
  3063                           ;	CPD = OFF, Data memory code protection is disabled
  3064                           ;	Brown-out Reset Enable
  3065                           ;	BOREN = ON, Brown-out Reset enabled
  3066                           ;	Clock Out Enable
  3067                           ;	CLKOUTEN = OFF, CLKOUT function is disabled. I/O or oscillator function on the CLKOUT 
      +                          pin
  3068                           ;	Internal/External Switchover
  3069                           ;	IESO = ON, Internal/External Switchover mode is enabled
  3070                           ;	Fail-Safe Clock Monitor Enable
  3071                           ;	FCMEN = ON, Fail-Safe Clock Monitor is enabled
  3072     8007                     	org	32775
  3073     8007  3FCC               	dw	16332
  3074                           
  3075                           ;Config register CONFIG2 @ 0x8008
  3076                           ;	Flash Memory Self-Write Protection
  3077                           ;	WRT = OFF, Write protection off
  3078                           ;	PLL Enable
  3079                           ;	PLLEN = OFF, 4x PLL disabled
  3080                           ;	Stack Overflow/Underflow Reset Enable
  3081                           ;	STVREN = ON, Stack Overflow or Underflow will cause a Reset
  3082                           ;	Brown-out Reset Voltage Selection
  3083                           ;	BORV = LO, Brown-out Reset Voltage (Vbor), low trip point selected.
  3084                           ;	In-Circuit Debugger Mode
  3085                           ;	DEBUG = 0x1, unprogrammed default
  3086                           ;	Low-Voltage Programming Enable
  3087                           ;	LVP = ON, Low-voltage programming enabled
  3088     8008                     	org	32776
  3089     8008  3EFF               	dw	16127

Data Sizes:
    Strings     0
    Constant    58
    Data        0
    BSS         0
    Persistent  36
    Stack       0

Auto Spaces:
    Space          Size  Autos    Used
    COMMON           14     13      13
    BANK0            80      0       4
    BANK1            80      0       0
    BANK2            80      0       0
    BANK3            80      0       0
    BANK4            80      0       0
    BANK5            80      0       0
    BANK6            80      0       0
    BANK7            80      0       0
    BANK8            80      0       0
    BANK9            32      0       0
    BANK10            0      0       0
    BANK11            0      0       0
    BANK12            0      0       0

Pointer List with Targets:

    INT_InterruptHandler	PTR FTN()void  size(2) Largest target is 1
		 -> INT_DefaultInterruptHandler(), NULL(), 

    INT_SetInterruptHandler@InterruptHandler	PTR FTN()void  size(2) Largest target is 1
		 -> INT_DefaultInterruptHandler(), 

    S379$4$0	PTR void  size(2) Largest target is 0

    S379$5$0	PTR void  size(2) Largest target is 0

    S379$6$0	PTR void  size(2) Largest target is 13
		 -> ADXL345_data_format(CODE[2]), ADXL345_init_settings(CODE[13]), 

    S379SPI_INTERFACE$BufferExchange	PTR FTN(PTR void ,unsigned int ,)void  size(2) Largest target is 1
		 -> SPI1_BufferExchange(), 

    S379SPI_INTERFACE$BufferRead	PTR FTN(PTR void ,unsigned int ,)void  size(2) Largest target is 1
		 -> SPI1_BufferRead(), 

    S379SPI_INTERFACE$BufferWrite	PTR FTN(PTR void ,unsigned int ,)void  size(2) Largest target is 1
		 -> SPI1_BufferWrite(), 

    S379SPI_INTERFACE$ByteExchange	PTR FTN(unsigned char ,)unsigned char  size(2) Largest target is 1
		 -> SPI1_ByteExchange(), 

    S379SPI_INTERFACE$ByteRead	PTR FTN()unsigned char  size(2) Largest target is 1
		 -> SPI1_ByteRead(), 

    S379SPI_INTERFACE$ByteWrite	PTR FTN(unsigned char ,)void  size(2) Largest target is 1
		 -> SPI1_ByteWrite(), 

    S379SPI_INTERFACE$Close	PTR FTN()void  size(2) Largest target is 1
		 -> SPI1_Close(), 

    S379SPI_INTERFACE$Deinitialize	PTR FTN()void  size(2) Largest target is 1
		 -> SPI1_Deinitialize(), 

    S379SPI_INTERFACE$Initialize	PTR FTN()void  size(2) Largest target is 1
		 -> SPI1_Initialize(), 

    S379SPI_INTERFACE$IsRxReady	PTR FTN()_Bool  size(2) Largest target is 1
		 -> SPI1_IsRxReady(), 

    S379SPI_INTERFACE$IsTxReady	PTR FTN()_Bool  size(2) Largest target is 1
		 -> SPI1_IsTxReady(), 

    S379SPI_INTERFACE$Open	PTR FTN(unsigned char ,)_Bool  size(2) Largest target is 1
		 -> SPI1_Open(), 

    S379SPI_INTERFACE$RxCompleteCallbackRegister	PTR FTN(PTR FTN()void ,)void  size(2) Largest target is 1
		 -> NULL(), 

    S379SPI_INTERFACE$TxCompleteCallbackRegister	PTR FTN(PTR FTN()void ,)void  size(2) Largest target is 1
		 -> NULL(), 

    SPI1_Host$BufferExchange	PTR FTN(PTR void ,unsigned int ,)void  size(2) Largest target is 1
		 -> SPI1_BufferExchange(), 

    SPI1_Host$BufferRead	PTR FTN(PTR void ,unsigned int ,)void  size(2) Largest target is 1
		 -> SPI1_BufferRead(), 

    SPI1_Host$BufferWrite	PTR FTN(PTR void ,unsigned int ,)void  size(2) Largest target is 1
		 -> SPI1_BufferWrite(), 

    SPI1_Host$ByteExchange	PTR FTN(unsigned char ,)unsigned char  size(2) Largest target is 1
		 -> SPI1_ByteExchange(), 

    SPI1_Host$ByteRead	PTR FTN()unsigned char  size(2) Largest target is 1
		 -> SPI1_ByteRead(), 

    SPI1_Host$ByteWrite	PTR FTN(unsigned char ,)void  size(2) Largest target is 1
		 -> SPI1_ByteWrite(), 

    SPI1_Host$Close	PTR FTN()void  size(2) Largest target is 1
		 -> SPI1_Close(), 

    SPI1_Host$Deinitialize	PTR FTN()void  size(2) Largest target is 1
		 -> SPI1_Deinitialize(), 

    SPI1_Host$Initialize	PTR FTN()void  size(2) Largest target is 1
		 -> SPI1_Initialize(), 

    SPI1_Host$IsRxReady	PTR FTN()_Bool  size(2) Largest target is 1
		 -> SPI1_IsRxReady(), 

    SPI1_Host$IsTxReady	PTR FTN()_Bool  size(2) Largest target is 1
		 -> SPI1_IsTxReady(), 

    SPI1_Host$Open	PTR FTN(unsigned char ,)_Bool  size(2) Largest target is 1
		 -> SPI1_Open(), 

    SPI1_Host$RxCompleteCallbackRegister	PTR FTN(PTR FTN()void ,)void  size(2) Largest target is 1
		 -> NULL(), 

    SPI1_Host$TxCompleteCallbackRegister	PTR FTN(PTR FTN()void ,)void  size(2) Largest target is 1
		 -> NULL(), 

    SW1_InterruptHandler	PTR FTN()void  size(2) Largest target is 1
		 -> SW1_DefaultInterruptHandler(), NULL(), 

    SW1_SetInterruptHandler@InterruptHandler	PTR FTN()void  size(2) Largest target is 1
		 -> SW1_DefaultInterruptHandler(), 


Critical Paths under _main in COMMON

    _main->_ADXL345_validation
    _PIN_MANAGER_Initialize->_SW1_SetInterruptHandler
    _INTERRUPT_Initialize->_INT_SetInterruptHandler
    _SW1_ISR->_SW1_DefaultInterruptHandler
    _ADXL345_validation->_SPI1_Open
    _SPI1_Open->___wmul

Critical Paths under _main in BANK0

    None.

Critical Paths under _main in BANK1

    None.

Critical Paths under _main in BANK2

    None.

Critical Paths under _main in BANK3

    None.

Critical Paths under _main in BANK4

    None.

Critical Paths under _main in BANK5

    None.

Critical Paths under _main in BANK6

    None.

Critical Paths under _main in BANK7

    None.

Critical Paths under _main in BANK8

    None.

Critical Paths under _main in BANK9

    None.

Critical Paths under _main in BANK10

    None.

Critical Paths under _main in BANK11

    None.

Critical Paths under _main in BANK12

    None.

Call Graph Tables:

 ---------------------------------------------------------------------------------
 (Depth) Function   	        Calls       Base Space   Used Autos Params    Refs
 ---------------------------------------------------------------------------------
 (0) _main                                                 2     2      0     309
                                             11 COMMON     2     2      0
                 _ADXL345_validation
                    _PIN_MANAGER_IOC
                    _SPI1_Initialize
                  _SYSTEM_Initialize
 ---------------------------------------------------------------------------------
 (1) _SYSTEM_Initialize                                    0     0      0      46
                   _CLOCK_Initialize
               _INTERRUPT_Initialize
             _PIN_MANAGER_Initialize
                    _SPI1_Initialize
                     _WDT_Initialize
 ---------------------------------------------------------------------------------
 (2) _WDT_Initialize                                       0     0      0       0
 ---------------------------------------------------------------------------------
 (2) _SPI1_Initialize                                      0     0      0       0
 ---------------------------------------------------------------------------------
 (2) _PIN_MANAGER_Initialize                               0     0      0      23
            _SW1_SetInterruptHandler
 ---------------------------------------------------------------------------------
 (3) _SW1_SetInterruptHandler                              2     0      2      23
                                              0 COMMON     2     0      2
 ---------------------------------------------------------------------------------
 (2) _INTERRUPT_Initialize                                 0     0      0      23
            _INT_SetInterruptHandler
 ---------------------------------------------------------------------------------
 (3) _INT_SetInterruptHandler                              2     0      2      23
                                              0 COMMON     2     0      2
 ---------------------------------------------------------------------------------
 (2) _CLOCK_Initialize                                     0     0      0       0
 ---------------------------------------------------------------------------------
 (1) _PIN_MANAGER_IOC                                      0     0      0       0
                            _SW1_ISR
 ---------------------------------------------------------------------------------
 (2) _SW1_ISR                                              0     0      0       0
                                NULL *
        _SW1_DefaultInterruptHandler *
 ---------------------------------------------------------------------------------
 (3) _SW1_DefaultInterruptHandler                          1     1      0       0
                                              0 COMMON     1     1      0
 ---------------------------------------------------------------------------------
 (3) NULL(Fake)                                            0     0      0       0
 ---------------------------------------------------------------------------------
 (1) _ADXL345_validation                                   1     1      0     263
                                             10 COMMON     1     1      0
                  _SPI1_ByteExchange
                         _SPI1_Close
                          _SPI1_Open
 ---------------------------------------------------------------------------------
 (2) _SPI1_Open                                            4     3      1     216
                                              6 COMMON     4     3      1
                             ___wmul
 ---------------------------------------------------------------------------------
 (3) ___wmul                                               6     2      4     100
                                              0 COMMON     6     2      4
 ---------------------------------------------------------------------------------
 (2) _SPI1_Close                                           0     0      0       0
 ---------------------------------------------------------------------------------
 (2) _SPI1_ByteExchange                                    1     0      1      23
                                              0 COMMON     1     0      1
 ---------------------------------------------------------------------------------
 Estimated maximum stack depth 3
 ---------------------------------------------------------------------------------

 Call Graph Graphs:

 _main (ROOT)
   _ADXL345_validation
     _SPI1_ByteExchange
     _SPI1_Close
     _SPI1_Open
       ___wmul
   _PIN_MANAGER_IOC
     _SW1_ISR
       NULL(Fake) *
       _SW1_DefaultInterruptHandler *
   _SPI1_Initialize
   _SYSTEM_Initialize
     _CLOCK_Initialize
     _INTERRUPT_Initialize
       _INT_SetInterruptHandler
     _PIN_MANAGER_Initialize
       _SW1_SetInterruptHandler
     _SPI1_Initialize
     _WDT_Initialize

Address spaces:
Name               Size   Autos  Total    Usage
BITCOMMON           14      0       0      0.0%
BITBANK0            80      0       0      0.0%
BITBANK1            80      0       0      0.0%
BITBANK2            80      0       0      0.0%
BITBANK3            80      0       0      0.0%
BITBANK4            80      0       0      0.0%
BITBANK5            80      0       0      0.0%
BITBANK6            80      0       0      0.0%
BITBANK7            80      0       0      0.0%
BITBANK8            80      0       0      0.0%
BITBANK9            80      0       0      0.0%
BITBANK10           80      0       0      0.0%
BITBANK11           80      0       0      0.0%
BITBANK12           48      0       0      0.0%
BIGRAM            1008      0       0      0.0%
COMMON              14     13      13     92.9%
BANK0               80      0       4      5.0%
BANK1               80      0       0      0.0%
BANK2               80      0       0      0.0%
BANK3               80      0       0      0.0%
BANK4               80      0       0      0.0%
BANK5               80      0       0      0.0%
BANK6               80      0       0      0.0%
BANK7               80      0       0      0.0%
BANK8               80      0       0      0.0%
BANK9               32      0       0      0.0%
BANK10               0      0       0      0.0%
BANK11               0      0       0      0.0%
BANK12               0      0       0      0.0%
STACK                0      0       0      0.0%
DATA                 0      0      17      0.0%


Microchip Technology PIC Macro Assembler V3.00 build 20241204225717 
Symbol Table                                                                                   Thu Jan 30 16:34:27 2025

                      _SPI1_ByteExchange 069B                                       l15 069A  
                                     l25 066E                                       l90 0674  
                                     l83 0685                                       l87 06C1  
                                     l79 074D                                       l96 06EB  
                     ?_SPI1_ByteExchange 0070                      ___wmul@multiplicand 0072  
                                    l105 067C                                      l210 068F  
                                    l221 0664                                      l118 06D1  
                                    l151 076F                                      l218 07F1  
                                    l146 075F                                      l251 069E  
                                    l163 0668                                      l253 06A3  
                                    l254 06A6                                      l293 06F6  
                                    l296 0703                                      l298 0709  
                                    l467 0714                                      l469 0728  
                                    l981 0686                                      l983 068A  
                                    l977 0675                                      l985 0665  
                                    l979 0678                                      u320 0724  
                                    u400 075F                                      u321 0723  
                                    u305 0715                                      u401 075E  
                                    u330 06BA                                      u315 071A  
                                    u331 06B9                                      u340 078B  
                                    u260 06DF                                      u341 078A  
                                    u261 06DE                                      u350 06A3  
                                    u270 06E9                                      u351 06A2  
                                    u271 06E6                                      u360 0682  
                                    u361 0681                                      u290 0710  
                                    u370 06F6                                      u291 070F  
                                    u371 06F5                                      u427 0766  
                                    u380 0701                                      u284 06EB  
                                    u381 0700                                      u437 0776  
                                    u447 06D5                      ??_SPI1_ByteExchange 0071  
                                    wreg 0009                                     l1003 0662  
                                   l1201 0742                                     l1211 06BF  
                                   l1203 0745                                     l1221 07EC  
                                   l1213 0786                                     l1205 074C  
                                   l1231 06A4                                     l1223 07EF  
                                   l1215 0786                                     l1207 06B3  
                                   l1225 07F0                                     l1217 078B  
                                   l1209 06BA                                     l1161 0669  
                                   l1241 06C5                                     l1171 070A  
                                   l1219 07EB                                     l1251 06ED  
                                   l1235 067D                                     l1163 066F  
                                   l1243 06C8                                     l1229 069B  
                                   l1181 0724                                     l1173 070C  
                                   l1253 06F8                                     l1165 06D2  
                                   l1237 0682                                     l1245 06CB  
                                   l1175 0710                                     l1255 0701  
                                   l1167 06DA                                     l1191 072B  
                                   l1247 06CE                                     l1239 06C2  
                                   l1271 074E                                     l1177 0719  
                                   l1257 0705                                     l1249 06EC  
                                   l1169 06DF                                     l1185 0690  
                                   l1193 072D                                     l1281 0761  
                                   l1273 0751                                     l1179 071E  
                                   l1259 0708                                     l1187 0693  
                                   l1195 0730                                     l1291 0782  
                                   l1283 076C                                     l1275 0754  
                                   l1197 0735                                     l1189 0729  
                                   l1285 0771                                     l1277 0756  
                                   l1199 0739                                     l1287 077C  
                                   l1279 0757                                     l1289 077E  
                                   _LATA 010C                                     _LATC 010E  
                                   _WPUA 020C                                     _WPUC 020E  
                        __end_of_SW1_ISR 06C2                                     _main 074E  
                                   fsr0h 0005                                     indf0 0000  
                                   fsr0l 0004                                     btemp 007E  
            _INT_DefaultInterruptHandler 0000                                     start 0002  
              __end_of_SPI1_ByteExchange 06A7          __end_of_INT_SetInterruptHandler 066F  
                            ?_SPI1_Close 0070                                    ?_main 0070  
                                  _IOCAF 0393                                    _IOCAN 0392  
                                  _IOCAP 0391                                    _TRISA 008C  
                                  _TRISC 008E                  __end_of_PIN_MANAGER_IOC 0686  
                         _WDT_Initialize 0665                  _SW1_SetInterruptHandler 066F  
                                  pclath 000A                                    status 0003  
                                  wtemp0 007E                       _ADXL345_validation 06EC  
                        __initialization 07F2                             __end_of_main 0786  
                    ?_ADXL345_validation 0070                                   ??_main 007B  
                 __end_of_WDT_Initialize 0669                                ??_SW1_ISR 0071  
                   ??_ADXL345_validation 007A                                   _ANSELA 018C  
                                 _ANSELC 018E                                   _BORCON 0116  
                                 _INLVLA 038C                                   _INLVLC 038E  
                                 _OSCCON 0099                                   _WDTCON 0097  
                      __end_of_SPI1_Host 081C                        __end_of_SPI1_Open 07F2  
                                 ___wmul 070A                        ?_CLOCK_Initialize 0070  
                     ??_CLOCK_Initialize 0070                          ?_WDT_Initialize 0070  
              ??_SW1_SetInterruptHandler 0072  SW1_SetInterruptHandler@InterruptHandler 0070  
INT_SetInterruptHandler@InterruptHandler 0070                         ?_PIN_MANAGER_IOC 0070  
                         _SPI1_IsRxReady 0000                           _SPI1_IsTxReady 0000  
                      _SYSTEM_Initialize 06C2                  __end_of__initialization 07FD  
                         _SPI1_ByteWrite 0000                       ?_SYSTEM_Initialize 0070  
          __end_of_ADXL345_init_settings 0838                           __pcstackCOMMON 0070  
                    ??_SYSTEM_Initialize 0072                        ??_SPI1_Initialize 0070  
                     _spi1_configuration 081C                           _OPTION_REGbits 0095  
                             _dataBuffer 22F0                __end_of_SYSTEM_Initialize 06D2  
                             __pmaintext 074E                                  ?___wmul 0070  
                                _APFCON0 011D                             ??_SPI1_Close 0070  
                                _OSCTUNE 0098                                  _SSP1ADD 0212  
                                _SSP1BUF 0211              __end_of_ADXL345_data_format 083A  
                                _SW1_ISR 06B3                       __end_of_SPI1_Close 0665  
                                __ptext1 06C2                                  __ptext2 0665  
                                __ptext3 0686                                  __ptext4 0729  
                                __ptext5 066F                                  __ptext6 0690  
                                __ptext7 0669                                  __ptext8 0675  
                                __ptext9 067D                 ??_PIN_MANAGER_Initialize 0072  
                              _IOCAFbits 0393                  _INT_SetInterruptHandler 0669  
                                clrloop0 06A8                     end_of_initialization 07FD  
           ?_SW1_DefaultInterruptHandler 0070                          _SPI1_BufferRead 0000  
                              _SPI1_Host 0800                                _SPI1_Open 0786  
                       ??_WDT_Initialize 0070                                _PORTAbits 000C  
                    _SPI1_BufferExchange 0000            ??_SW1_DefaultInterruptHandler 0070  
                        _SPI1_Initialize 0686             __end_of_INTERRUPT_Initialize 069B  
                             ?_SPI1_Open 0076                           __end_of___wmul 0729  
              ??_INT_SetInterruptHandler 0072                      start_initialization 07F2  
                  _ADXL345_init_settings 082B                                 ??___wmul 0074  
               ?_SW1_SetInterruptHandler 0070                            _SPI1_ByteRead 0000  
                            __pbssBIGRAM 22F0                                ___latbits 0002  
                               ?_SW1_ISR 0070                  __end_of_SPI1_Initialize 0690  
                              __pnvBANK0 0020                   _PIN_MANAGER_Initialize 0729  
                   SPI1_Open@returnValue 0079                              ??_SPI1_Open 0077  
                   _INTERRUPT_Initialize 0690                         _CLOCK_Initialize 0675  
                         ___wmul@product 0074                                 _LATAbits 010C  
                               _LATCbits 010E                                clear_ram0 06A7  
                               _PIE1bits 0091                                 _PIR1bits 0011  
                   _SW1_InterruptHandler 0020                                 _SSP1CON1 0215  
                               _SSP1CON3 0217          __end_of_SW1_SetInterruptHandler 0675  
                               _SSP1STAT 0214                        ??_PIN_MANAGER_IOC 0071  
                      _SPI1_Deinitialize 0000                        ___wmul@multiplier 0070  
                       ?_SPI1_Initialize 0070                    ?_INTERRUPT_Initialize 0070  
             __end_of_ADXL345_validation 070A                                 __ptext10 06B3  
                               __ptext11 06D2                                 __ptext12 06EC  
                               __ptext13 0786                                 __ptext14 070A  
                               __ptext15 0662                                 __ptext16 069B  
                           _SSP1CON1bits 0215                               _INTCONbits 000B  
                   _INT_InterruptHandler 0022                   ??_INTERRUPT_Initialize 0072  
    __end_of_SW1_DefaultInterruptHandler 06EC              _SW1_DefaultInterruptHandler 06D2  
               ADXL345_validation@passed 007A                  ?_PIN_MANAGER_Initialize 0070  
              SPI1_ByteExchange@byteData 0070                         _SPI1_BufferWrite 0000  
               ?_INT_SetInterruptHandler 0070                 __end_of_CLOCK_Initialize 067D  
                          __pstringtext1 0800                            __pstringtext2 081C  
                          __pstringtext3 082B                            __pstringtext4 0838  
                             _SPI1_Close 0662                      _ADXL345_data_format 0838  
         __end_of_PIN_MANAGER_Initialize 074E                          _PIN_MANAGER_IOC 067D  
                SPI1_Open@spiConfigIndex 0076               __end_of_spi1_configuration 082B  
